                             //
                             // Page0
                             // RAM:0000-RAM:003f
                             //
  zp_PortA                              0000 ff                     db         FFh                          Shadow of hw_PortA (0x80). PA0=IRDT (IR data in), PA1=_KBDATA, PA2=_KBCLOCK, PA3=PRDT (wired peripheral data in)
  zp_PortB                              0001 ff                     db         FFh                          Shadow of hw_PortB (0x81). PB0-1=AUS0-1, PB2=_KBSE (keyboard serial enable), PB3=AUS2, PB4-7=CPCP0-3 (media key nibble to U62)
  zp_PortD                              0002 ff                     db         FFh                          Shadow of hw_PortD (0x83). PD0=YB1, PD1=XA1, PD2=YA1, PD3=XB1 (mouse quadrature), PD4=FIRE0, PD5-6=POT. WARNING: clobbered by quadrature encoder at 0x0AF0
  zp_PortC                              0003 ff                     db         FFh                          Shadow of hw_PortC (0x82). PC0=YB2, PC1=XA2, PC2=YA2, PC3=XB2 (joystick quadrature), PC4=FIRE1, PC5-6=POT
  zp_PulseDuration_LSB                  0004 ff                     db         FFh                          IR pulse duration counter LSB. Incremented every IRQ tick (~163 t-states) while bit 7 of zp_IREventFlag is set
  zp_PulseDuration_MSB                  0005 ff                     db         FFh                          IR pulse duration counter MSB. Masked to 4 bits at 0x0BB6 giving a 12-bit range (0-4095 ticks, max ~445 ms)
  zp_ProtocolMask                       0006 ff                     db         FFh                          Protocol line mask: 0x01 for IR (PA0/IRDT), 0x08 for wired (PA3/PRDT), 0x06 for keyboard (PA1+PA2). Set at 0x08C8
  zp_IRCommandByte                      0007 ff                     db         FFh                          Decoded IR command byte. On the 20-bit path: mouse/joystick/numpad command. On the 40-bit keyboard path: qualifier bitmask (one bit per qualifier key). Interpretation
  zp_KeyboardIndex                      0008 ff                     db         FFh                          Keyboard table index (0x0F7C). 0=no key. Set by f_Decode40BitIRKeyboard
  zp_IRShift0                           0009 ff                     db         FFh                          IR shift register byte 0 (LSB of 40-bit frame buffer). Bits enter via ROR chain from byte 4
  zp_IRShift1                           000a ff                     db         FFh                          IR shift register byte 1
  zp_IRShift2                           000b ff                     db         FFh                          IR shift register byte 2
  zp_IRShift3                           000c ff                     db         FFh                          IR shift register byte 3
  zp_IRShift4                           000d ff                     db         FFh                          IR shift register byte 4 (MSB). Status nibble extracted from bits[7:4] after 4 LSRs at 0x0A6E-0x0A71
  zp_IRHeaderNibble                     000e ff                     db         FFh                          IR header nibble: 0x0=mouse, 0x1=joystick, 0x2=keyboard
  zp_IREventFlag                        000f ff                     db         FFh                          IR event state flags. bit0=error/timeout, bit1=repeat frame received, bit2=40-bit qualifier frame, bit7=pulse measurement active
  zp_IRQCount_LSB                       0010 ff                     db         FFh                          16-bit IRQ tick counter LSB. Incremented every IRQ (~163 t-states / ~108.7 us). Used for keyboard timing and periodic reset
  zp_IRQCount_MSB                       0011 ff                     db         FFh                          16-bit IRQ tick counter MSB. Combined with LSB bit0 gives a 9-bit window (~512 IRQs / ~56 ms) for periodic port refresh
  zp_KB_Temp                            0012 ff                     db         FFh                          Keyboard state flag. bit0: set when a full NEC frame has been validated (enables repeat-range test on next frame)
  zp_Remote_NP_Media                    0013 ff                     db         FFh                          Remote event type flags. bit0=numpad key pending, bit1=media key pending (bit1 is never set by any firmware path)
  zp_ModifierIndexPrior                 0014 ff                     db         FFh                          Previous qualifier bitmask (one bit per qualifier key per Amiga Hardware Reference Manual). Stored here after each IR frame; compared on next frame to detect changes.
  zp_KeyboardIndexPrior                 0015 ff                     db         FFh                          Previous keyboard index. Compared against zp_KeyboardIndex to detect changes; updated after transmission
  zp_IRInputReady                       0016 ff                     db         FFh                          IR data ready flag. bit7=peripheral data ready for main loop commit. Set by f_CommitPendingModifierEntry, cleared at 0x0861
  zp_IRPR_RawState                      0017 ff                     db         FFh                          Raw PortA state snapshot. Updated each call to f_DetectInputEdges; previous value used for edge XOR comparison
  zp_IRPR_RawDeactEdge                  0018 ff                     db         FFh                          Raw deactivation edges: bits that transitioned from active (low) to inactive (high) since last edge detection call
  zp_IRPR_ActiveFlags                   0019 ff                     db         FFh                          Active-high input flags. PA0/PA3 inverted to active-high convention. Seeded to 0x09 at reset for edge detector baseline
  zp_IRPR_ActivationEdge                001a ff                     db         FFh                          Activation edge flags. Bits set where inputs transitioned from inactive to active since last call. Tested for PA0 (bit0) and PA3 (bit3)
  zp_PendingModifier0                   001b ff                     db         FFh                          Dual-use: (1) pending modifier staging byte 0 for IR keyboard path, (2) distance accumulator for quadrature channel 0
  zp_PendingModifier1                   001c ff                     db         FFh                          Dual-use: (1) pending modifier staging byte 1 for IR keyboard path, (2) distance accumulator for quadrature channel 1
  zp_QuadPhase0                         001d ff                     db         FFh                          Quadrature phase counter channel 0. 2-bit modulo-4 ring (0-3). Indexes into tbl_QuadratureX at 0x0B4C
  zp_QuadPhase1                         001e ff                     db         FFh                          Quadrature phase counter channel 1. 2-bit modulo-4 ring (0-3). Indexes into tbl_QuadratureY at 0x0B50
  zp_IRInputProcessed                   001f ff                     db         FFh                          IR input processed flag. Set to 1 after f_ProcessIRInput runs; cleared to 0 by IRQ after port write completes. Guards against re-entry
  zp_QuadDelta0                         0020 ff                     db         FFh                          Signed movement delta for quadrature channel 0: +1=forward, 0xFF=reverse, 0=idle. Cleared when distance accumulator saturates
  zp_QuadDelta1                         0021 ff                     db         FFh                          Signed movement delta for quadrature channel 1: +1=forward, 0xFF=reverse, 0=idle
  zp_StatusCheck                        0022 ff                     db         FFh                          Status check sentinel. Initialised to 0xFF at reset; cleared at end of f_ProcessKeyboard. Non-zero blocks IR dispatch re-entry at 0x08AC
  zp_PeripheralDataReady                0023 ff                     db         FFh                          Peripheral data ready semaphore. Set to 1 when Protocol 2 frame decoded; cleared at start of f_ProcessIRAndKeyboardEvents. Triggers PortD reset
  zp_FrontPanelPrevious                 0024 ff                     db         FFh                          Previous front panel button state (PortB bits 0/1/3). Used for edge-triggered change detection in f_ProcessFrontPanel
  zp_UNUSED                             0025 ff                     db         FFh                          Unused
  zp_ScratchA                           0026 ff                     db         FFh                          Scratch A: scancode to send / PortA snapshot 1 / X-axis offset
  zp_ScratchB                           0027 ff                     db         FFh                          Scratch B: key direction flag / PortA snapshot 2 / Y-axis offset
  zp_ScratchC                           0028 ff                     db         FFh                          Scratch C: PortA snapshot 3 / checksum command byte copy
  zp_ScratchD                           0029 ff                     db         FFh                          Scratch D: PortA snapshot 4 / checksum complement byte
  zp_PeriphTypeSave                     002a ff                     db         FFh                          Peripheral type save/restore. Y register stashed here before quadrature processing; restored afterwards
  zp_IRScratch                          002b ff                     db         FFh                          IR scratch byte. Temp for rotation chain in f_Decode40BitIRKeyboard checksum 3
  zp_BitValue                           002c ff                     db         FFh                          Validated bit value from mark duration classifier: 0=short mark (bit 0), 1=long mark (bit 1). Used in Protocol 2 bit loop
  zp_KB_ShiftRegister                   002d ff                     db         FFh                          Keyboard/peripheral shift register. Accumulates bits via LSR/ROL in the 3-bit header and 11-bit keyboard paths
                             0x002E–0x003F: Stack area (18 bytes)
                             Stack pointer S initialized to 0x3F, grows downward to 0x2E
                             Maximum safe depth: ~9 JSRs or ~3 nested calls during IRQ
                             Stack area (0x2E-0x3F): 18 bytes. Stack pointer initialised to 0x3F at reset and grows downward.\nMaximum safe depth is approximately 9 JSR frames or 3 nested calls during IRQ service.
                                       002e ff                     db         FFh
                                       002f ff                     db         FFh
                                       0030 ff                     db         FFh
                                       0031 ff                     db         FFh
                                       0032 ff                     db         FFh
                                       0033 ff                     db         FFh
                                       0034 ff                     db         FFh
                                       0035 ff                     db         FFh
                                       0036 ff                     db         FFh
                                       0037 ff                     db         FFh
                                       0038 ff                     db         FFh
                                       0039 ff                     db         FFh
                                       003a ff                     db         FFh
                                       003b ff                     db         FFh
                                       003c ff                     db         FFh
                                       003d ff                     db         FFh
  zp_StackBase-1                        003e ff                     db         FFh
  zp_StackBase                          003f ff                     db         FFh                          Initial stack location (S=0x3F at reset)
                             //
                             // IO
                             // RAM:0080-RAM:008f
                             //
  hw_PortA                              0080 ff                     db         FFh                          Hardware PortA. PA1=_KBDATA output (U75 drives to CIA), PA2=_KBCLOCK output (U75 drives to CIA). U75 uses these as outputs only to relay IR-decoded scancodes. The CD1
  hw_PortB                              0081 ff                     db         FFh                          Hardware PortB. PB2=_KBSE: keyboard serial enable line. Held high by CIA when ready to receive; U75 waits for PB2 high before each serial transmission. Note: _KBSE is
  hw_PortC                              0082 ff                     db         FFh                          Hardware PortC register. Directly drives Denise JOY1DAT for joystick quadrature lines. Active-low
  hw_PortD                              0083 ff                     db         FFh                          Hardware PortD register. Directly drives Denise JOY0DAT for mouse quadrature lines. Active-low
  hw_UpperLatchWO                       0084 ff                     db         FFh                          Only ever written 0
  hw_LowerLatchWO                       0085 ff                     db         FFh                          Only ever written 0x8C (140)
  hw_UpperCountRO                       0086 ff                     db         FFh                          Not used
  hw_LowerCountRO                       0087 ff                     db         FFh                          Not used
  hw_TransferWO                         0088 ff                     db         FFh                          Transfer latches to counter & start timer (WO, typically write 0x00)
                                                                                                           Atomically: (1) Store to Upper Latch, (2) Copy latches→counter, (3) Begin countdown
  hw_PosEdgeDetectedWO                  0089 ff                     db         FFh                          Clear PA0 edge flag (WO) — UNUSED: Edge interrupts disabled
  hw_NegEdgeDetectedWO                  008a ff                     db         FFh                          Clear PA1 edge flag (WO) — UNUSED: Edge interrupts disabled
                                       008b ff                     db         FFh                          Unassigned
                                       008c ff                     db         FFh                          Unassigned
                                       008d ff                     db         FFh                          Unassigned
                                       008e ff                     db         FFh                          Unassigned
  hw_ControlRegister                    008f ff                     db         FFh                          00001 0000 = Counter interrupt ENABLED
                             //
                             // Program
                             // RAM:0800-RAM:0ff8
                             //
                             ****************************************************************************************************************************************************************************
                             * RES (0x0800)                                                                                                                                                             *
                             *                                                                                                                                                                          *
                             * Purpose: Cold-start initialisation. Clears zero-page RAM, configures I/O                                                                                                 *
                             * ports, starts the interval timer, seeds the edge detector, and enters                                                                                                    *
                             * the main processing loop.                                                                                                                                                *
                             *                                                                                                                                                                          *
                             * Outputs:                                                                                                                                                                 *
                             *   S = 0x3F (top of 6500/1 zero-page stack)                                                                                                                               *
                             *   All zero-page RAM (0x00-0x3F) cleared                                                                                                                                  *
                             *   PortA/B = 0x0F, PortC/D = 0xFF (idle)                                                                                                                                  *
                             *   Interval timer running (140 t-state latch, CIE enabled)                                                                                                                *
                             *   Interrupts enabled (CLI)                                                                                                                                               *
                             *                                                                                                                                                                          *
                             * Timing: IRQ fires every ~163 t-states (140 latch + 23 overhead) = ~108.7 us.                                                                                             *
                             * Ref: MOS 6500/1 datasheet, interval timer section.                                                                                                                       *
                             ****************************************************************************************************************************************************************************
                             undefined RES()
             undefined         <UNASSIGNED>   <RETURN>
  RES                                   0800 78                     SEI                                     Disable interrupts during hardware setup
                                       0801 d8                     CLD                                     Clear decimal mode (unpredictable at power-on per datasheet)
                                       0802 a2 3f                  LDX        #0x3f                        X = 0x3F: loop counter and initial stack pointer value
                                       0804 9a                     TXS                                     Set SP to 0x3F (6500/1 stack is in zero-page, not page 1)
                                       0805 a9 00                  LDA        #0x0                         A = 0x00: value to write during zero-page clear loop
                             Clear all 64 bytes of zero-page RAM (0x3F down to 0x00). X counts downward; BPL loops while X >= 0.
  Loop_PageZero                         0807 95 00                  STA        0x0,X=>zp_StackBase          Write 0x00 to zero-page[X], clearing this RAM location
                                       0809 ca                     DEX                                     Move to next lower address
                                       080a 10 fb                  BPL        Loop_PageZero                Loop while X >= 0; exits when DEX from 0 gives 0xFF (N=1)
                             Configure I/O ports. PortA/B = 0x0F (lower nibble high = idle inputs). PortC/D = 0xFF (all inactive).
                                       080c a9 0f                  LDA        #00001111b                   A = 0x0F: PA0-3 idle high, PB0-3 idle
                                       080e 85 00                  STA        zp_PortA                     Init PortA shadow to idle
                                       0810 85 80                  STA        hw_PortA                     Write idle to hw_PortA
                                       0812 85 01                  STA        zp_PortB                     Init PortB shadow (CPCP=0, AUS idle)
                                       0814 85 81                  STA        hw_PortB                     Write idle to hw_PortB
                                       0816 a9 ff                  LDA        #11111111b                   A = 0xFF: all active-low lines deasserted
                                       0818 85 02                  STA        zp_PortD                     Init PortD shadow (mouse port) to inactive
                                       081a 85 83                  STA        hw_PortD                     Write inactive to hw_PortD
                                       081c 85 03                  STA        zp_PortC                     Init PortC shadow (joystick port) to inactive
                                       081e 85 82                  STA        hw_PortC                     Write inactive to hw_PortC
                                       0820 85 22                  STA        zp_StatusCheck               Init status sentinel to 0xFF; blocks IR dispatch until first cycle
                             Configure 6500/1 interval timer. Latch=140, upper=0. Writing hw_TransferWO starts the counter. CIE bit enables IRQ.
                                       0822 a9 8c                  LDA        #140                         A = 140 (0x8C): counter reload value (~93 us period)
                                       0824 85 85                  STA        hw_LowerLatchWO              Write 140 to lower latch (0x85)
                                       0826 a9 00                  LDA        #0x0                         A = 0: upper latch (period fits in 8 bits)
                                       0828 85 84                  STA        hw_UpperLatchWO              Write 0 to upper latch (0x84)
                                       082a 85 88                  STA        hw_TransferWO                Write to transfer reg (0x88): loads latch, starts counter
                                       082c a9 10                  LDA        #00010000b                   A = 0x10: bit 4 = Counter Interrupt Enable (CIE)
                                       082e 85 8f                  STA        hw_ControlRegister           Write to control reg (0x8F): enable counter overflow IRQ
                             Seed edge detector with idle state so first loop iteration has a valid baseline.
                                       0830 a9 09                  LDA        #00001001b                   A = 0x09: PA0(IRDT) + PA3(PRDT) high = idle
                                       0832 85 19                  STA        zp_IRPR_ActiveFlags          Seed active-flags with idle baseline for edge detection
                                       0834 58                     CLI                                     Enable interrupts; timer running, IRQ handler ready
                             ****************************************************************************************************************************************************************************
                             * Loop_Main (0x0835)                                                                                                                                                       *
                             *                                                                                                                                                                          *
                             * Purpose: Central dispatch loop. Calls six stages per iteration then restarts.                                                                                            *
                             *                                                                                                                                                                          *
                             * Stages:                                                                                                                                                                  *
                             *   1. f_ProcessIRAndKeyboardEvents  — sample IR/keyboard, flag events                                                                                                     *
                             *   2. f_ProcessIREvent              — decode raw IR pulse data                                                                                                            *
                             *   3. f_ProcessIRDataAndSetFlags    — verify checksums, extract fields                                                                                                    *
                             *   4. f_JumpTableDispatcher         — route to mouse/joy/kbd handler                                                                                                      *
                             *   5. f_WriteAllPorts               — flush port shadows to hardware                                                                                                      *
                             *   6. f_ProcessKeyboard             — wired keyboard/media, clear flags                                                                                                   *
                             *                                                                                                                                                                          *
                             * Timing: ~200-2000 us per iteration depending on IR/keyboard activity.                                                                                                    *
                             ****************************************************************************************************************************************************************************
                             Main execution loop — entered immediately after CLI. Calls each processing function in turn then loops back. The counter IRQ fires every 163 t-states (~109 µs) throughout.
  Loop_Main                             0835 20 4a 08               JSR        f_ProcessIRAndKeyboardEvents Stage 1: sample IR/keyboard lines, set event flags
                                       0838 20 56 0a               JSR        f_ProcessIREvent             Stage 2: decode raw IR pulses into shift registers
                                       083b 20 61 0c               JSR        f_ProcessIRDataAndSetFlags   Stage 3: verify frame checksums, extract fields
                                       083e 20 fe 0c               JSR        f_JumpTableDispatcher        Stage 4: route to mouse/joystick/keyboard handler
                                       0841 20 0b 0e               JSR        f_WriteAllPorts              Stage 5: flush port shadows to hardware (guarded)
                                       0844 20 25 0e               JSR        f_ProcessKeyboard            Stage 6: wired keyboard/media events, clear flags
                                       0847 4c 35 08               JMP        Loop_Main                    Restart main loop unconditionally
                             ****************************************************************************************************************************************************************************
                             * f_ProcessIRAndKeyboardEvents (0x084A)                                                                                                                                    *
                             *                                                                                                                                                                          *
                             * Purpose: Core input handler. Discriminates IR, wired, and keyboard protocols,                                                                                            *
                             * acquires data, and sets event flags for downstream processing.                                                                                                           *
                             *                                                                                                                                                                          *
                             * Inputs: hw_PortA, zp_PeripheralDataReady, zp_IREventFlag, IRQ counter                                                                                                    *
                             * Outputs: zp_PortC/D (quadrature), zp_IRCommandByte, zp_KeyboardIndex,                                                                                                    *
                             *          zp_IRInputReady bit 7                                                                                                                                           *
                             *                                                                                                                                                                          *
                             * Protocol mask (set at 0x08C8):                                                                                                                                           *
                             *   0x01 = IR (PA0/IRDT), 0x08 = wired (PA3/PRDT), 0x06 = keyboard (PA1+PA2)                                                                                               *
                             *                                                                                                                                                                          *
                             * Timing thresholds (per IRQ tick ~163 t-states):                                                                                                                          *
                             *   Header: 58-250, Repeat space: 13-30, Full space: 38-50                                                                                                                 *
                             *   Short mark: 1-7, Long mark: 9-25, Bit period: 13-47                                                                                                                    *
                             *                                                                                                                                                                          *
                             * BIT tricks at: 0x08C5, 0x0991, 0x0A1B, 0x0A2B, 0x0A43                                                                                                                    *
                             * Called from: Loop_Main (every iteration)                                                                                                                                 *
                             ****************************************************************************************************************************************************************************
                             byte __stdcall f_ProcessIRAndKeyboardEvents(byte param_1)
             byte              A:1            <RETURN>
             byte              Y:1            param_1
  f_ProcessIRAndKeyboardE               084a a5 23                  LDA        zp_PeripheralDataReady       Check if previous peripheral data needs PortD cleanup
                                       084c f0 04                  BEQ        ResetInputParameters         Skip PortD reset if no data pending from previous frame
                                       084e a9 ff                  LDA        #0xff                        A = 0xFF: clear stale mouse/joystick quadrature state
                                       0850 85 02                  STA        zp_PortD                     Reset PortD shadow to idle, prevent phantom movements
                             Clear event flags and counters for a fresh detection cycle. IRQ counter starts at 1 (not 0) to avoid false timeout.
  ResetInputParameters                  0852 a2 00                  LDX        #0x0                         X = 0: used to clear multiple flags efficiently
                                       0854 86 0f                  STX        zp_IREventFlag               Clear event flags for fresh detection
                                       0856 86 11                  STX        zp_IRQCount_MSB              Reset IRQ counter MSB
                                       0858 86 23                  STX        zp_PeripheralDataReady       Clear peripheral-ready semaphore
                                       085a e8                     INX                                     X = 1 (saves a byte vs LDA #1)
                                       085b 86 10                  STX        zp_IRQCount_LSB              Start IRQ counter at 1 to avoid immediate false timeout
                                       085d a5 16                  LDA        zp_IRInputReady              Check if previous IR data still awaits main loop commit
                                       085f 29 80                  AND        #10000000b                   Isolate bit 7 (data-ready flag)
                                       0861 85 16                  STA        zp_IRInputReady              Keep data-ready, clear protocol state bits 0-6
                                       0863 a5 00                  LDA        zp_PortA                     Read PortA shadow for idle assertion
                                       0865 09 09                  ORA        #00001001b                   Force PA0 (IRDT) and PA3 (PRDT) high for idle baseline
                                       0867 85 00                  STA        zp_PortA                     Update shadow with forced-idle state
                                       0869 85 80                  STA        hw_PortA                     Write idle to hw_PortA before edge sampling
                                       086b 20 db 0b               JSR        f_DetectInputEdges           First edge detect: establish baseline for change detect
                             Timeout and periodic refresh loop. Polls for IR/keyboard activity using a 9-bit counter (MSB bit0 : LSB). 
                             When it wraps to zero (~512 IRQs / ~56 ms), refreshes all ports to idle and clears the CPCP nibble. 
                             This implicit key-up is the ONLY release mechanism for CPCP media commands.
  WaitForToggle                         086e a5 11                  LDA        zp_IRQCount_MSB              Load IRQ counter MSB for periodic refresh check
                                       0870 29 01                  AND        #0x1                         Extract bit 0 of MSB for 9-bit counter window
                                       0872 05 10                  ORA        zp_IRQCount_LSB              Combine with full LSB: zero every 512 IRQs (~56 ms)
                                       0874 d0 34                  BNE        SkipInitialise               Skip refresh unless 9-bit counter wrapped to zero
                             Periodic port refresh (~512 IRQs / ~83ms):
                               Writes 0x0F to portB — clears CPCP nibble (PB7:4=0x0).
                               The U62 interprets CPCP=0 as key-up, completing the press/release cycle
                               for any media key that was previously latched.
                               This is the ONLY key-up mechanism for CPCP commands — there is no explicit
                               IR key-up command. The release is implicit in the next periodic refresh
                                       0876 a9 0f                  LDA        #00001111b                   Periodic PortB reset: 0x0F clears CPCP nibble (key-up)
                                       0878 85 01                  STA        zp_PortB                     Update PortB shadow
                                       087a 85 81                  STA        hw_PortB                     Flush to hw_PortB: U62 sees CPCP=0 as key-up
                                       087c a9 ff                  LDA        #0xff                        A = 0xFF: inactive for joystick/mouse ports
                                       087e 85 82                  STA        hw_PortC                     Refresh hw_PortC to inactive
                                       0880 85 03                  STA        zp_PortC                     Update PortC shadow to match
                             Periodic PortD refresh. WARNING: if f_AcquireIRBits ran since last f_WriteAllPorts, zp_PortD holds quadrature-encoded IR data, not a valid idle state.
                                       0882 a5 02                  LDA        zp_PortD                     Load PortD shadow (may hold stale quadrature data)
                                       0884 09 f0                  ORA        #11110000b                   Force upper nibble high; lower nibble as-is
                                       0886 85 02                  STA        zp_PortD                     Update shadow with masked value
                                       0888 85 83                  STA        hw_PortD                     Write to hw_PortD (garbled if IR clobbered shadow)
                                       088a a5 13                  LDA        zp_Remote_NP_Media           Check for pending remote control events
                                       088c 4a                     LSR        A                            Shift numpad flag (bit 0) into carry
                                       088d b0 0c                  BCS        ProcessNumPad                Numpad event pending: branch to handler
                                       088f a5 13                  LDA        zp_Remote_NP_Media           Re-read for media key check (bit 1)
                                       0891 29 02                  AND        #00000010b                   Isolate media key flag
                             Dead branch: bit 1 of zp_Remote_NP_Media is never set by any firmware path. The three writers (0x08A4, 0x0E72, 0x0E90) only store 0x00 or 0x01. Vestigial media dispatch from an earlier
                                       0893 f0 0b                  BEQ        ResetRemoteValues            Always branches (bit 1 never set). 0x0895-0x0898 unreachable
                             ****************************************************************************************************************************************************************************
                             * Dead Code Note — 0x0895-0x0898                                                                                                                                           *
                             * This JSR f_ProcessKeyboardEvent and the following JMP ResetRemoteValues are unreachable.                                                                                 *
                             * The branch at 0x0893 (BEQ ResetRemoteValues) tests zp_Remote_NP_Media bit 1, but that                                                                                    *
                             * bit is never set by any execution path in the firmware. The three writers of 0x13 are:                                                                                   *
                             *   0x08A4 — STA 0 (clear on each periodic refresh)                                                                                                                        *
                             *   0x0E72 — STA 0 (clear after media key dispatch)                                                                                                                        *
                             *   0x0E90 — STA A, where A is always 0x00 or 0x01 (press/release flag for numpad)                                                                                         *
                             * Bit 1 (value 0x02) is never stored. This appears to be a vestigial media key dispatch                                                                                    *
                             * path, possibly intended for a media transport key that was later routed through the CPCP                                                                                 *
                             * mechanism (f_MediaKeyCPCP at 0x0D88) instead of the keyboard scancode path.                                                                                              *
                             ****************************************************************************************************************************************************************************
                                       0895 20 0e 0f               JSR        f_ProcessKeyboardEvent       DEAD CODE: would call f_ProcessKeyboardEvent
                                       0898 4c a0 08               JMP        ResetRemoteValues            DEAD CODE: would jump to ResetRemoteValues
  ProcessNumPad                         089b a9 00                  LDA        #0x0                         A = 0: key press parameter (not release)
                                       089d 20 90 0e               JSR        f_ProcessNumbPad             Send numpad keycode to host via serial interface
                             Reset state for next detection cycle. Clears keyboard temp, remote flags, and prior modifier/key values.
  ResetRemoteValues                     08a0 a9 00                  LDA        #0x0                         A = 0: clear value for multiple registers
                                       08a2 85 12                  STA        zp_KB_Temp                   Clear keyboard temp (disable repeat-range test)
                                       08a4 85 13                  STA        zp_Remote_NP_Media           Clear remote event flags
                                       08a6 85 14                  STA        zp_ModifierIndexPrior        Clear previous modifier state (forces re-detection)
  Bit_Trick+1                           08a8 85 15                  STA        zp_KeyboardIndexPrior        Clear previous key index
  Bit_Trick
  SkipInitialise                        08aa a5 22                  LDA        zp_StatusCheck               Check status sentinel: non-zero blocks IR dispatch
  IRCheckIdle                           08ac d0 03                  BNE        IRCheckIdle_PostKB           Skip IR processing if sentinel set (prevents re-entry)
                                       08ae 20 c2 0a               JSR        f_CheckIRInputProcessed      Check if previous IR frame still being processed
                             Second edge detection call this iteration. First at 0x086B set the baseline; this captures the final state.
  IRCheckIdle_PostKB                    08b1 20 db 0b               JSR        f_DetectInputEdges           Compute final activation/deactivation edges
                                       08b4 20 fc 0b               JSR        f_ProcessFrontPanel          Check front panel media buttons for state changes
                                       08b7 a5 1a                  LDA        zp_IRPR_ActivationEdge       Read newly activated input lines
                                       08b9 29 09                  AND        #0x9                         Mask for IRDT (bit 0) and PRDT (bit 3) only
                                       08bb f0 b1                  BEQ        WaitForToggle                No IR/wired edge: loop back and keep waiting
                                       08bd a5 1a                  LDA        zp_IRPR_ActivationEdge       Re-read activation edges for protocol discrimination
                                       08bf 29 08                  AND        #0x8                         Isolate PRDT (bit 3) for wired vs IR test
                                       08c1 d0 03                  BNE        PRDT_active+1                PRDT active: wired peripheral path (BIT trick)
                                       08c3 a9 01                  LDA        #0x1                         IR protocol: mask = 0x01 (PA0 only)
                             BIT trick: 3 bytes at 0x08C5 encode BIT $08A9. IR path (A=0x01) falls through. Wired path (BNE from 0x08C1 lands at 0x08C6) sees LDA #0x08.
  PRDT_active+1                         08c5 2c a9 08               BIT        Bit_Trick+1                  BIT trick: hides LDA #0x08 for wired path
  PRDT_active
                                       08c8 85 06                  STA        zp_ProtocolMask              Store protocol mask (0x01=IR, 0x08=wired)
                                       08ca 20 2e 0c               JSR        f_ResetPulseTimer            Reset pulse timer before header mark measurement
                             Peripheral line stabilisation. Polls up to 32 times (~4.5 ms) for the protocol line to go idle before acquisition.
                                       08cd a2 20                  LDX        #0x20                        X = 32: max iterations for line stabilisation
  WaitKBStatus                          08cf a5 80                  LDA        hw_PortA                     Sample hw_PortA for active protocol line
                                       08d1 25 06                  AND        zp_ProtocolMask              Mask to protocol line (PA0 or PA3)
                                       08d3 d0 d5                  BNE        SkipInitialise               Line idle: exit wait, begin header validation
                                       08d5 ca                     DEX                                     Decrement stabilisation counter
                                       08d6 d0 f7                  BNE        WaitKBStatus                 Keep waiting for stabilisation or timeout
                             NEC-like header mark validation. Wait for mark to end, then validate against table index 10 (Protocol 2: 6-19 ticks) or 0 (NEC: 58-250 ticks).
  IRWaitLoop                            08d8 a5 0f                  LDA        zp_IREventFlag               Check IRQ timeout flag (bit 0)
                                       08da 4a                     LSR        A                            Shift timeout flag into carry
                                       08db b0 38                  BCS        SetIREventFlag               Timeout: header mark too long. Abort
                                       08dd a5 80                  LDA        hw_PortA                     Sample PortA: has header mark ended?
                                       08df 49 09                  EOR        #0x9                         XOR 0x09: result non-zero while either line active
                                       08e1 25 06                  AND        zp_ProtocolMask              Mask to monitored protocol line
                                       08e3 d0 f3                  BNE        IRWaitLoop                   Mark still active: keep waiting
                                       08e5 a2 0a                  LDX        #0xa                         X = 10: Protocol 2 header timing window (6-19 ticks)
                                       08e7 20 3b 0c               JSR        f_ValidatePulseTiming        Validate against Protocol 2 range
                                       08ea f0 4c                  BEQ        f_P2AcquireFrame             Valid P2 header: branch to wired frame acquisition
                                       08ec a2 00                  LDX        #0x0                         P2 failed; X = 0: test NEC range (58-250 ticks)
                                       08ee 20 3b 0c               JSR        f_ValidatePulseTiming        Validate against NEC-like range
                                       08f1 d0 22                  BNE        SetIREventFlag               Neither range matched: abort
                             Header mark valid (NEC-like). Measure the header space to discriminate full frame (~4500 us / 38-50 ticks) from repeat (~2250 us / 13-30 ticks). zp_KB_Temp bit 0 selects which range to
                                       08f3 20 2e 0c               JSR        f_ResetPulseTimer            Reset pulse timer for header space measurement
  IRWaitLoop2                           08f6 a5 0f                  LDA        zp_IREventFlag               Poll for timeout during header space
                                       08f8 4a                     LSR        A                            Shift timeout flag into carry
                                       08f9 b0 1a                  BCS        SetIREventFlag               Timeout: abort
                                       08fb a5 80                  LDA        hw_PortA                     Sample PortA: has space ended?
                                       08fd 25 06                  AND        zp_ProtocolMask              Mask to protocol line
                                       08ff d0 f5                  BNE        IRWaitLoop2                  Space ongoing: keep waiting
                             After the header mark is validated, the firmware enters this loop to wait for
                             the header space to end (PA0 goes low again), then measures its duration.
                             A full NEC frame has a ~4500µs header space (~32 ticks at 140µs/tick).
                             A NEC repeat frame has a ~2250µs header space (~16–20 ticks).
                             zp_KB_Temp bit0 determines which timing range to test first:
                             bit0 = 1 → test X=2 (range 13–30 ticks, ~1820–4200µs) — picks up repeat space
                             bit0 = 0 → test X=4 (range 38–50 ticks, ~5320–7000µs) — full-frame space only
                             Header space range discriminator: tests repeat range first if zp_KB_Temp bit 0 is set
                                       0901 a5 12                  LDA        zp_KB_Temp                   Load KB_Temp: bit 0 selects range test order
                                       0903 4a                     LSR        A                            Shift bit 0 into carry
                                       0904 90 07                  BCC        CheckRange2                  Cold start: skip repeat test, go to full-frame range
                                       0906 a2 02                  LDX        #0x2                         X = 2: repeat space range (13-30 ticks)
                                       0908 20 3b 0c               JSR        f_ValidatePulseTiming        Validate against repeat range
                                       090b f0 0b                  BEQ        IRWaitNext                   Matches repeat: handle repeat frame
                             Repeat range failed (space > 30 ticks). Re-test against full-frame space range.
  CheckRange2                           090d a2 04                  LDX        #0x4                         Repeat failed; X = 4: full-frame range (38-50 ticks)
                                       090f 20 3b 0c               JSR        f_ValidatePulseTiming        Validate against full-frame range
                                       0912 d0 01                  BNE        SetIREventFlag               Neither range: abort
                                       0914 60                     RTS                                     Full-frame header valid: return for payload decode
  SetIREventFlag                        0915 4c 4f 0a               JMP        f_SetIREventFlagJump         Flag error and abandon acquisition
                             -- Flow Override: CALL_RETURN (CALL_TERMINATOR)
                             ****************************************************************************************************************************************************************************
                             * f_RepeatFramePath (0x0918)                                                                                                                                               *
                             *                                                                                                                                                                          *
                             * Purpose: Handle NEC repeat frame (9 ms mark + 2.25 ms space + stop mark).                                                                                                *
                             * Sets IREventFlag bit 1 to signal repeat to MouseQuadraturePath.                                                                                                          *
                             * No shift-register update, no scancode, no port change.                                                                                                                   *
                             *                                                                                                                                                                          *
                             * Inputs: hw_PortA (per zp_ProtocolMask), zp_IREventFlag bit 0                                                                                                             *
                             * Outputs: zp_IREventFlag bit 1 set                                                                                                                                        *
                             * Side effects: 256-NOP guard delay (~1.4 ms) prevents immediate re-entry.                                                                                                 *
                             * Prerequisite: zp_KB_Temp bit 0 must be set by a preceding full frame.                                                                                                    *
                             ****************************************************************************************************************************************************************************
  IRWaitNext                            0918 20 2e 0c               JSR        f_ResetPulseTimer            Reset pulse timer for stop mark measurement
  AnotherIRWait                         091b a5 0f                  LDA        zp_IREventFlag               Check timeout flag
                                       091d 4a                     LSR        A                            Shift bit 0 into carry
                                       091e b0 f5                  BCS        SetIREventFlag               Timeout: abort
                                       0920 a5 80                  LDA        hw_PortA                     Sample PortA: has stop mark ended?
                                       0922 25 06                  AND        zp_ProtocolMask              Mask to protocol line
                                       0924 f0 f5                  BEQ        AnotherIRWait                Stop mark still active: keep waiting
                             Stop mark ended. 256-NOP guard delay (~2048 cycles / ~1.4 ms) prevents immediate re-entry before line settles.
                                       0926 a2 00                  LDX        #0x0                         X = 0: 256-iteration guard delay
  NopDelayLoop                          0928 ea                     NOP                                     NOP padding for timing
                                       0929 ea                     NOP                                     NOP padding
                                       092a ea                     NOP                                     NOP padding
                                       092b ca                     DEX                                     Decrement guard counter
                                       092c d0 fa                  BNE        NopDelayLoop                 Loop until delay complete
                             Record repeat event. Bit 7 already set (active). Add bit 1 for downstream MouseQuadraturePath (0x0D94).
                                       092e a5 0f                  LDA        zp_IREventFlag               Load IREventFlag (bit 7 already set)
                                       0930 09 02                  ORA        #0x2                         Set bit 1: valid NEC repeat received
                                       0932 85 0f                  STA        zp_IREventFlag               Store updated flag
                                       0934 60                     RTS                                     Return: repeat processed, no scancode/port change
                             ****************************************************************************************************************************************************************************
                             * DEAD CODE — no caller targets this address. Sits immediately after RTS at $0934 inside f_RepeatFramePath. The JMP to $08AA (f_ProcessIRAndKeyboardEvents re-entry) i...  *
                             ****************************************************************************************************************************************************************************
                                       0935 4c aa 08               JMP        f_ProcessIRAndKeyboardEven   DEAD — unreachable after RTS at $0934; no caller; JMP $08AA never executes
                             ****************************************************************************************************************************************************************************
                             * f_P2AcquireFrame (0x0938)                                                                                                                                                *
                             *                                                                                                                                                                          *
                             * Purpose: Acquire one complete Protocol 2 frame (wired joystick, mouse, Brick)                                                                                            *
                             * from PA0 or PA3. Three phases:                                                                                                                                           *
                             *   1. 3-bit discriminator: device type + button bits                                                                                                                      *
                             *      bit2=0: mouse (10 more bits). bit2=1: joystick (16 more bits)                                                                                                       *
                             *   2. Data bit loop: mark/space measurement with validation                                                                                                               *
                             *   3. Port decode: extract buttons/direction into PortC/PortD                                                                                                             *
                             *                                                                                                                                                                          *
                             * Inputs: zp_ProtocolMask, zp_IREventFlag bit 0, hw_PortA                                                                                                                  *
                             * Outputs: zp_PortC (JOY2), zp_PortD (JOY1), zp_PeripheralDataReady                                                                                                        *
                             * Timing: mark 0 ~150 us, mark 1 ~500 us; space 0 ~725 us, space 1 ~375 us                                                                                                 *
                             ****************************************************************************************************************************************************************************
  f_P2AcquireFrame                      0938 20 2e 0c               JSR        f_ResetPulseTimer            Reset pulse timer for start space measurement
                             Wait for protocol line to go high (start space ends). Timeout aborts.
  WaitForStartSpaceEnd                  093b a5 0f                  LDA        zp_IREventFlag               Check for timeout during start space
                                       093d 4a                     LSR        A                            Shift timeout flag into carry
                                       093e b0 d5                  BCS        SetIREventFlag               Timeout: abort
                                       0940 a5 80                  LDA        hw_PortA                     Sample PortA: is space still active?
                                       0942 25 06                  AND        zp_ProtocolMask              Mask to protocol line
                                       0944 d0 f5                  BNE        WaitForStartSpaceEnd         Space ongoing: keep waiting
                                       0946 a2 0c                  LDX        #0xc                         X = 12: Protocol 2 start space range (1-6 ticks)
                                       0948 20 3b 0c               JSR        f_ValidatePulseTiming        Validate start space duration
                                       094b d0 c8                  BNE        SetIREventFlag               Out of range: not Protocol 2. Abort
                                       094d a9 00                  LDA        #0x0                         A = 0: clear shift register
                                       094f 85 2d                  STA        zp_KB_ShiftRegister          Clear shift register for 3-bit header
                                       0951 a0 03                  LDY        #0x3                         Y = 3: read 3 header bits (device, RMB, LMB)
                             3-bit header read loop. Reads device type (bit 18), RMB (bit 17), LMB (bit 16) into zp_KB_ShiftRegister.
  ReadInputLoop                         0953 20 c9 0a               JSR        f_ProcessIRInput             Sample PortA into 4 snapshot bytes
                                       0956 20 2e 0c               JSR        f_ResetPulseTimer            Reset timer for this bit's mark duration
                                       0959 a2 00                  LDX        #0x0                         X = 0: init mark-duration counter
                                       095b 20 78 0b               JSR        f_TimingAnchorRTS            12-cycle timing anchor before mark-count loop
  HeaderMarkCountLoop                   095e e8                     INX                                     Increment mark counter (~15 t-states/iteration)
  HeaderMarkCountSample                 095f f0 b4                  BEQ        SetIREventFlag               X=0 (wrapped): mark too long. Abort
                                       0961 a5 80                  LDA        hw_PortA                     Sample PortA: has mark ended?
                                       0963 25 06                  AND        zp_ProtocolMask              Mask to protocol line
                                       0965 f0 f7                  BEQ        HeaderMarkCountLoop          Mark active: keep counting
                                       0967 20 54 0b               JSR        f_ValidatePulseDuration      Classify mark: 2-7=bit 0, 9-25=bit 1, else invalid
                                       096a 30 a9                  BMI        SetIREventFlag               Invalid duration: abort
                                       096c 85 2c                  STA        zp_BitValue                  Store validated bit value (0 or 1)
                                       096e 20 c9 0a               JSR        f_ProcessIRInput             Re-sample PortA for space-count phase
                                       0971 20 79 0b               JSR        f_CountIdleSamples           Prime X with idle-sample count before space loop
                             -- Wait for keyboard lines to return to idle state (all bits clear) --
  HeaderSpaceCountLoop                  0974 e8                     INX                                     Increment cumulative mark+space counter
                                       0975 f0 9e                  BEQ        SetIREventFlag               X=0 (wrapped): space too long. Abort
                                       0977 a5 80                  LDA        hw_PortA                     Sample PortA: has space ended?
                                       0979 25 06                  AND        zp_ProtocolMask              Mask to protocol line
                                       097b d0 f7                  BNE        HeaderSpaceCountLoop         Space active: keep counting
                                       097d 20 6d 0b               JSR        f_ValidateSpaceTiming        Validate cumulative X: must be 13-47
                                       0980 30 93                  BMI        SetIREventFlag               Out of range: abort
                                       0982 46 2c                  LSR        zp_BitValue                  Shift bit value into carry
                                       0984 26 2d                  ROL        zp_KB_ShiftRegister          ROL carry into KB_ShiftRegister
                                       0986 88                     DEY                                     Decrement header bit counter
                                       0987 d0 ca                  BNE        ReadInputLoop                More bits needed: loop back
                             3-bit read complete. KB_ShiftReg bit 2 = device type. 0=mouse (Y=10 more bits), 1=joystick (BIT trick loads Y=16).
                                       0989 a5 2d                  LDA        zp_KB_ShiftRegister          Load KB_ShiftReg to test device type bit
                                       098b 29 04                  AND        #0x4                         Test bit 2: 0=mouse, non-zero=joystick
                                       098d d0 03                  BNE        SetTempD_Next                Joystick: branch to BIT trick (loads Y=16)
                                       098f a0 0a                  LDY        #0xa                         Mouse: Y = 10, read 10 more data bits
                             NOTE: BIT trick corrected. Bytes at $0991: 2C A0 10. Branch target is $0992 = A0 10 = LDY #$10 (16 decimal). The BIT instruction at $0991 is a dummy read when execution falls through; 
  SetTempD_Next (0991+1)                0991 2c a0 10               BIT        DAT_10a0                     BIT trick: LDY #16 hidden in BIT $10A0 operand
                             Data bit collection loop. Reads Y bits (10=mouse, 16=joystick) into {IRShift1:IRShift0} via mark/space measurement.
  DataBitLoop                           0994 20 c9 0a               JSR        f_ProcessIRInput             Sample PortA for idle-count priming
                                       0997 a2 00                  LDX        #0x0                         X = 0: reset mark counter
                                       0999 20 78 0b               JSR        f_TimingAnchorRTS            12-cycle timing anchor
  DelayLoop                             099c e8                     INX                                     Increment mark counter
                                       099d d0 03                  BNE        DataMarkCheckEnd             Skip timeout if X non-zero
                                       099f 4c 4f 0a               JMP        f_SetIREventFlagJump         X=0: mark too long. Abort
                             -- Flow Override: CALL_RETURN (CALL_TERMINATOR)
  DataMarkCheckEnd                      09a2 a5 80                  LDA        hw_PortA                     Sample PortA: has mark ended?
                                       09a4 25 06                  AND        zp_ProtocolMask              Mask to protocol line
                                       09a6 f0 f4                  BEQ        DelayLoop                    Mark active: keep counting
                                       09a8 20 54 0b               JSR        f_ValidatePulseDuration      Classify mark duration
                                       09ab 10 03                  BPL        StoreKeyValue                Valid (A>=0): store. Invalid (A=0xFF): abort
  SetIREventFlagJump                    09ad 4c 4f 0a               JMP        f_SetIREventFlagJump         Invalid: abort
                             -- Flow Override: CALL_RETURN (CALL_TERMINATOR)
  StoreKeyValue                         09b0 85 2c                  STA        zp_BitValue                  Store validated bit value
                                       09b2 20 c9 0a               JSR        f_ProcessIRInput             Re-sample PortA for space phase
                                       09b5 20 79 0b               JSR        f_CountIdleSamples           Prime X with idle count
                             NOTE: X counter is cumulative across mark and space. f_ValidatePulseDuration (called at $09A8 after marking) receives mark-only count. f_ValidateSpaceTiming (called at $09C1 after spac
  DataSpaceCountLoop                    09b8 e8                     INX                                     Increment cumulative counter
                                       09b9 f0 a4                  BEQ        HeaderMarkCountSample        X=0: space too long. Abort
                                       09bb a5 80                  LDA        hw_PortA                     Sample PortA: has space ended?
                                       09bd 25 06                  AND        zp_ProtocolMask              Mask to protocol line
                                       09bf d0 f7                  BNE        DataSpaceCountLoop           Space active: keep counting
                                       09c1 20 6d 0b               JSR        f_ValidateSpaceTiming        Validate cumulative X: 13-47
                                       09c4 30 e7                  BMI        SetIREventFlagJump           Out of range: abort
                                       09c6 a5 2c                  LDA        zp_BitValue                  Reload bit value
                                       09c8 4a                     LSR        A                            Shift into carry
                                       09c9 26 09                  ROL        zp_IRShift0                  ROL into IRShift0; MSB exits to carry
                                       09cb 26 0a                  ROL        zp_IRShift1                  Carry into IRShift1 (16-bit accumulation)
                                       09cd 88                     DEY                                     Decrement data bit counter
  SetTempD_Next                         09ce d0 c4                  BNE        DataBitLoop                  More bits: loop back
                             Port decode: extract buttons and direction from shift registers. Buttons from 3-bit header go to PortD upper nibble. Direction data to PortC and PortD lower nibbles. Both inverted to a
                                       09d0 a5 02                  LDA        zp_PortD                     Load PortD shadow to preserve unmodified bits
                                       09d2 29 4f                  AND        #0x4f                        Clear button bits (PD4, PD5, PD7)
                                       09d4 85 02                  STA        zp_PortD                     Store cleared shadow
                                       09d6 a5 2d                  LDA        zp_KB_ShiftRegister          Load KB_ShiftReg: bit0=LMB, bit1=RMB (wire state)
                                       09d8 aa                     TAX                                     Save in X for framing check after button encode
                                       09d9 29 03                  AND        #0x3                         Isolate bits[1:0]: {RMB, LMB}
                                       09db 0a                     ASL        A                            Shift button bits toward upper nibble (step 1/4)
                                       09dc 0a                     ASL        A                            ASL A — step 2
                                       09dd 0a                     ASL        A                            ASL A — step 3
                                       09de 0a                     ASL        A                            Step 4: buttons now at PD5(RMB) and PD4(LMB)
                                       09df 05 02                  ORA        zp_PortD                     Merge button states into PortD upper nibble
                                       09e1 85 02                  STA        zp_PortD                     Store merged value
                                       09e3 8a                     TXA                                     Restore KB_ShiftReg for framing check
                                       09e4 29 04                  AND        #0x4                         Test bit 2: must be 0 for valid mouse frame
                                       09e6 d0 26                  BNE        P2AccumulateChannel          Bit 2 set: framing error. Abort
                             Quadrature transformation. Route V[3:0] and H[7:6] to PortC (JOY1DAT). Then right-shift by 6 to align V[7:4] into PortD (JOY0DAT). Invert to active-low.
                                       09e8 a5 02                  LDA        zp_PortD                     Reload PortD shadow (buttons in upper nibble)
                                       09ea 29 f0                  AND        #0xf0                        Clear lower nibble for direction insertion
                                       09ec 85 02                  STA        zp_PortD                     Store cleared shadow
                                       09ee a5 09                  LDA        zp_IRShift0                  Load IRShift0: bits[5:0] = {V3,V2,V1,V0,H7,H6}
                                       09f0 29 3f                  AND        #0x3f                        Isolate bits[5:0]
                                       09f2 49 7f                  EOR        #0x7f                        Invert to active-low for Denise JOY1DAT
                                       09f4 85 03                  STA        zp_PortC                     Write to PortC shadow
                                       09f6 a2 06                  LDX        #0x6                         X = 6: right-shift count to align V[7:4]
  RotateShiftLoop                       09f8 46 0a                  LSR        zp_IRShift1                  LSR IRShift1: bit 0 exits to carry
                                       09fa 66 09                  ROR        zp_IRShift0                  ROR IRShift0: carry enters bit 7
                                       09fc ca                     DEX                                     Decrement shift counter
                                       09fd d0 f9                  BNE        RotateShiftLoop              Loop until 6 shifts complete
                                       09ff a5 09                  LDA        zp_IRShift0                  Load IRShift0: bits[3:0] = V[7:4]
                                       0a01 29 0f                  AND        #0xf                         Isolate V[7:4]
                                       0a03 05 02                  ORA        zp_PortD                     Merge into PortD lower nibble
                                       0a05 49 3f                  EOR        #0x3f                        Invert bits[5:0] to active-low for Denise
                                       0a07 85 02                  STA        zp_PortD                     Write to PortD shadow
                                       0a09 a9 01                  LDA        #0x1                         A = 1: set peripheral-ready flag
                                       0a0b 85 23                  STA        zp_PeripheralDataReady       Flag=1: next iteration resets PortD to 0xFF
                                       0a0d 60                     RTS                                     Return to main loop
                             ****************************************************************************************************************************************************************************
                             * Wired-joystick quadrature delta accumulation (reached from $09E6 BNE).                                                                                                   *
                             *                                                                                                                                                                          *
                             * Entered only when a Protocol-2 frame arrives on PA3 (PRDT) and the 3-bit header discriminator identifies the frame as a joystick (KB_ShiftRegister bit 2 = 1).           *
                             * Mouse frames (bit 2 = 0) exit earlier via the quadrature encode path at $09E8.                                                                                           *
                             *                                                                                                                                                                          *
                             * Two channels are accumulated separately:                                                                                                                                 *
                             *   Channel 0: zp_PendingModifier0 ($001B) += zp_IRShift1 ($000A)                                                                                                          *
                             *   Channel 1: zp_PendingModifier1 ($001C) += zp_IRShift0 ($0009)                                                                                                          *
                             *                                                                                                                                                                          *
                             * Each channel is then normalised to the range [-1 .. +1] using a pair of BIT tricks:                                                                                      *
                             *   Zero result     : BEQ skips both DEC and INC; value remains 0.                                                                                                         *
                             *   Positive result : BPL branches into the BIT operand                                                                                                                    *
                             ****************************************************************************************************************************************************************************
                             Modifier/scancode extraction from IR shift registers. Uses BIT tricks for conditional normalisation.
  P2AccumulateChannel                   0a0e a5 1b                  LDA        zp_PendingModifier0          Load accumulated channel-0 delta (zp_PendingModifier0) for joystick movement
                                       0a10 18                     CLC                                     Clear carry before 8-bit signed addition
                                       0a11 65 0a                  ADC        zp_IRShift1                  Add IRShift1 (upper data byte from P2 joystick frame) to channel-0 accumulator
                                       0a13 85 1b                  STA        zp_PendingModifier0          Store updated channel-0 accumulator
                                       0a15 f0 07                  BEQ        InputLowAdjusted             Zero result: no movement on channel 0; skip normalisation entirely
                                       0a17 10 03                  BPL        Label_InputLowPlus           Positive result: branch INTO BIT operand at $0A1C to execute INC PendingModifier0
                                       0a19 c6 1b                  DEC        zp_PendingModifier0          Negative result: decrement accumulator toward -1 (normalise)
  Label_InputLowPlus (0a1               0a1b 2c e6 1b               BIT        DAT_1be6                     BIT trick — executed only on negative path after DEC. Operand bytes $E6 $1B encode INC $1B which runs when BPL at $0A17 is taken (positive path); harmless dummy read 
  InputLowAdjusted                      0a1e a5 1c                  LDA        zp_PendingModifier1          Load accumulated channel-1 delta (zp_PendingModifier1) for second joystick axis
                                       0a20 18                     CLC                                     Clear carry before signed addition
                                       0a21 65 09                  ADC        zp_IRShift0                  Add IRShift0 (lower data byte from P2 joystick frame) to channel-1 accumulator
                                       0a23 85 1c                  STA        zp_PendingModifier1          Store updated channel-1 accumulator
                                       0a25 f0 07                  BEQ        InputHighAdjusted            Zero result: no movement on channel 1; skip normalisation
                                       0a27 10 03                  BPL        InputHighPlus                Positive result: branch INTO BIT operand at $0A2C to execute INC PendingModifier1
                                       0a29 c6 1c                  DEC        zp_PendingModifier1          Negative result: decrement accumulator toward -1
  InputHighPlus (0a2b+1)                0a2b 2c e6 1c               BIT        DAT_1ce6                     BIT trick — same pattern as $0A1B but for channel 1 (PendingModifier1 / $001C)
                             Modifier table reset and commit. Clear delta tables (0x20-0x21), commit from source (0x1B+X) to active (0x20+X), set IR_InputReady bit 7.
  InputHighAdjusted                     0a2e a9 00                  LDA        #0x0                         A = 0: clear modifier delta registers
                                       0a30 85 20                  STA        zp_QuadDelta0                Clear delta channel 0
                                       0a32 85 21                  STA        zp_QuadDelta1                Clear delta channel 1
                                       0a34 85 10                  STA        zp_IRQCount_LSB              Clear IRQ counter LSB (reset timing reference)
                                       0a36 aa                     TAX                                     X = 0: index for first modifier table entry
                                       0a37 20 3b 0a               JSR        f_CommitPendingModifierEntry Commit modifier entry 0 to active table
                                       0a3a e8                     INX                                     X = 1: next modifier slot
                             ****************************************************************************************************************************************************************************
                             * f_CommitPendingModifierEntry (0x0A3B)                                                                                                                                    *
                             *                                                                                                                                                                          *
                             * Purpose: Transfer pending modifier state from source (0x1B+X) to active                                                                                                  *
                             * (0x20+X) table, then set bit 7 of zp_IRInputReady.                                                                                                                       *
                             *                                                                                                                                                                          *
                             * Normalisation: zero=skip, positive=as-is, negative=normalise to 1.                                                                                                       *
                             * Uses BIT trick at 0x0A43 to skip LDA #0xFF.                                                                                                                              *
                             ****************************************************************************************************************************************************************************
                             undefined f_CommitPendingModifierEntry()
             undefined         <UNASSIGNED>   <RETURN>
  f_CommitPendingModifier               0a3b b5 1b                  LDA        0x1b,X                       Load pending entry from source table[0x1B+X]
                                       0a3d f0 09                  BEQ        SkipUpdate                   Zero: no change, skip to flag set
                                       0a3f 10 03                  BPL        ProceedValue                 Positive (bit 7 clear): store as-is
                                       0a41 a9 01                  LDA        #0x1                         Negative: normalise to 1 (key-pressed)
  ProceedValue (0a43+1)                 0a43 2c a9 ff               BIT        DAT_ffa9                     BIT trick: hides LDA #0xFF + STA
                                       0a46 95 20                  STA        0x20,X                       Store to active table[0x20+X]
  SkipUpdate                            0a48 a5 16                  LDA        zp_IRInputReady              Load IR input ready flag
                                       0a4a 09 80                  ORA        #0x80                        Set bit 7: data ready for main loop
                                       0a4c 85 16                  STA        zp_IRInputReady              Store updated flag
                                       0a4e 60                     RTS                                     Return
                             ****************************************************************************************************************************************************************************
                             * f_SetIREventFlagJump (0x0A4F)                                                                                                                                            *
                             *                                                                                                                                                                          *
                             * Purpose: Set bit 0 of zp_IREventFlag to signal error/timeout.                                                                                                            *
                             * Called from any acquisition path on invalid pulse, framing error, or overflow.                                                                                           *
                             ****************************************************************************************************************************************************************************
                             byte __stdcall f_SetIREventFlagJump(void)
             byte              A:1            <RETURN>
  f_SetIREventFlagJump                  0a4f a5 0f                  LDA        zp_IREventFlag               Load event flags
                                       0a51 09 01                  ORA        #0x1                         Set bit 0: error/timeout
                                       0a53 85 0f                  STA        zp_IREventFlag               Store updated flags
  WaitForFlagsClear                     0a55 60                     RTS                                     Return with error flag set
                             ****************************************************************************************************************************************************************************
                             * f_ProcessIREvent (0x0A56)                                                                                                                                                *
                             *                                                                                                                                                                          *
                             * Purpose: Validate state, clear shift registers, acquire 4-bit NEC header,                                                                                                *
                             * extract zp_IRHeaderNibble, set protocol-specific delay.                                                                                                                  *
                             *                                                                                                                                                                          *
                             * Wire nibble -> zp_IRHeaderNibble -> handler:                                                                                                                             *
                             *   0000 -> 0x0 -> f_ProcessMouse  (commands 0-255)                                                                                                                        *
                             *   1000 -> 0x1 -> f_ProcessJoystick (commands 2048-2303)                                                                                                                  *
                             *   0100 -> 0x2 -> f_ProcessKeyboardEvent (commands 1024-1279)                                                                                                             *
                             *                                                                                                                                                                          *
                             * Qualifier (0x2): sets IREventFlag bit 2 for 40-bit decode path.                                                                                                          *
                             ****************************************************************************************************************************************************************************
                             byte __stdcall f_ProcessIREvent(void)
             byte              A:1            <RETURN>
  f_ProcessIREvent                      0a56 a5 0f                  LDA        zp_IREventFlag               Load event flags for state check
                                       0a58 29 03                  AND        #0x3                         Mask lower 2 bits: check for error/pending
                                       0a5a 05 16                  ORA        zp_IRInputReady              Combine with IR input ready
                                       0a5c 05 23                  ORA        zp_PeripheralDataReady       Combine with peripheral data ready
                                       0a5e d0 f5                  BNE        f_SetIREventFlagJump::Wait   Any flag set: wait until idle
                             Clear 5-byte shift register (0x09-0x0D) for new IR data.
                                       0a60 a2 04                  LDX        #0x4                         X = 4: start from highest byte
  ClearIRShift                          0a62 95 09                  STA        0x9,X=>zp_IRShift4           Clear shift register byte[X]
                                       0a64 ca                     DEX                                     Decrement index
                                       0a65 10 fb                  BPL        ClearIRShift                 Loop until all 5 bytes zeroed
                             ****************************************************************************************************************************************************************************
                             * IR Header Acquisition (0x0A67)                                                                                                                                           *
                             *                                                                                                                                                                          *
                             * Acquires the 4-bit protocol header from a 24-bit NEC frame.                                                                                                              *
                             * Each bit enters IRShift4 bit 7 via the ROR chain; after 4 RORs the                                                                                                       *
                             * nibble sits in bits[7:4]. Four LSRs move it to bits[3:0].                                                                                                                *
                             *                                                                                                                                                                          *
                             * Wire nibble (MSB-first) to zp_IRHeaderNibble:                                                                                                                            *
                             *   0000 -> 0x0 -> f_ProcessMouse  (commands 0-255)                                                                                                                        *
                             *   1000 -> 0x1 -> f_ProcessJoystick (commands 2048-2303)                                                                                                                  *
                             *   0100 -> 0x2 -> f_ProcessKeyboardEvent (commands 1024-1279)                                                                                                             *
                             *                                                                                                                                                                          *
                             * For qualifier (0x2): bit 2 is set in zp_IREventFlag to signal the                                                                                                        *
                             * 40-bit decode path. IRHeaderNibble remains 0x2 for the dispatcher.                                                                                                       *
                             ****************************************************************************************************************************************************************************
                             Acquire 4-bit NEC header. Bits enter IRShift4 bit 7 via ROR chain. After 4 bits, 4 LSRs at 0x0A6E extract the nibble.
                                       0a67 a0 04                  LDY        #0x4                         Y = 4: acquire 4 header bits
                                       0a69 20 8a 0a               JSR        f_AcquireIRBits              Acquire bits with timing validation
                                       0a6c a5 0d                  LDA        zp_IRShift4                  Load IRShift4: header nibble in bits[7:4]
                                       0a6e 4a                     LSR        A                            LSR 1/4: move nibble from [7:4] to [3:0]
                                       0a6f 4a                     LSR        A                            LSR 2 of 4
                                       0a70 4a                     LSR        A                            LSR 3 of 4
                                       0a71 4a                     LSR        A                            LSR 4/4: nibble now in bits[3:0]
                                       0a72 85 0e                  STA        zp_IRHeaderNibble            Store as zp_IRHeaderNibble: 0=mouse, 1=joy, 2=kbd
                                       0a74 c9 02                  CMP        #0x2                         Test for qualifier protocol (0x2)
                                       0a76 d0 03                  BNE        Std_Periph+1                 Not qualifier: skip bit 2 set
                             Qualifier path — entered only when zp_IRHeaderNibble = 0x2 (keyboard qualifier
                                       0a78 a9 04                  LDA        #0x4                         A = 0x04: bit 2 set flag for 40-bit keyboard qualifier
  Std_Periph+1                          0a7a 2c a9 00               BIT        DAT_00a9                     BIT trick — operand bytes $A9 $00 encode LDA #$00 for the standard path; qualifier path falls through here and then ORs bit 2 into IREventFlag at $0A7D
  Std_Periph
                                       0a7d 05 0f                  ORA        zp_IREventFlag               OR bit 2 into IREventFlag (qualifier) or 0 (standard)
                                       0a7f 85 0f                  STA        zp_IREventFlag               Store updated flag
                                       0a81 29 04                  AND        #0x4                         Test bit 2: qualifier=36-tick delay, standard=20
                                       0a83 d0 03                  BNE        SkipAdditionalDelay          Qualifier: skip standard delay
                                       0a85 a0 14                  LDY        #0x14                        Y = 20: standard delay for mouse/joystick
  SkipAdditionalDelay (0a               0a87 2c a0 24               BIT        DAT_24a0                     BIT trick: hides LDY #36 for qualifier path
                             ****************************************************************************************************************************************************************************
                             * f_AcquireIRBits (0x0A8A)                                                                                                                                                 *
                             *                                                                                                                                                                          *
                             * Purpose: Read Y bits from IR signal with timing validation.                                                                                                              *
                             * Short mark (1-6 ticks) = bit 0. Long mark (7-12 ticks) = bit 1.                                                                                                          *
                             * Bits shift into IRShift0-4 via ROR chain (enters IRShift4 bit 7).                                                                                                        *
                             *                                                                                                                                                                          *
                             * BIT trick at 0x0AB2: CLC opcode (0x18) doubles as BIT operand.                                                                                                           *
                             ****************************************************************************************************************************************************************************
                             byte __stdcall f_AcquireIRBits(char param_1)
             byte              A:1            <RETURN>
             char              Y:1            param_1
                             IR bit acquisition loop. Each bit: wait for mark start, wait for mark end, validate against short/long timing windows, shift into 5-byte register via ROR chain.
  f_AcquireIRBits                       0a8a 20 2e 0c               JSR        f_ResetPulseTimer            Reset pulse timer for mark measurement
  WaitForKeyboardSignalSt               0a8d a5 0f                  LDA        zp_IREventFlag               Check for timeout
                                       0a8f 4a                     LSR        A                            Shift timeout into carry
                                       0a90 b0 bd                  BCS        f_SetIREventFlagJump         Timeout: abort
                                       0a92 a5 80                  LDA        hw_PortA                     Sample PortA: read IR line state
                                       0a94 25 06                  AND        zp_ProtocolMask              Mask to active line
  WaitForPeriphMarkStart                0a96 f0 f5                  BEQ        WaitForKeyboardSignalStart   Line inactive: waiting for mark to begin
  WaitForKeyboardSignalEnd              0a98 a5 0f                  LDA        zp_IREventFlag               Mark started: check for timeout during mark
                                       0a9a 4a                     LSR        A                            Shift timeout into carry
                                       0a9b b0 b2                  BCS        f_SetIREventFlagJump         Timeout during mark: abort
                                       0a9d a5 80                  LDA        hw_PortA                     Re-sample: has mark ended?
                                       0a9f 25 06                  AND        zp_ProtocolMask              Mask to active line
  WaitForPeriphMarkEnd                  0aa1 d0 f5                  BNE        WaitForKeyboardSignalEnd     Mark still active: keep waiting
                             Mark ended. Validate against short (1-6 ticks) and long (7-12 ticks) windows. Short=carry clear. Long=carry set.
                                       0aa3 a2 06                  LDX        #0x6                         X = 6: short pulse timing offset
                                       0aa5 20 3b 0c               JSR        f_ValidatePulseTiming        Validate short range (1-6 ticks)
                                       0aa8 f0 09                  BEQ        AcceptKeyboardBit+1          Short match: accept as bit 0 (BIT trick clears carry)
  AcceptKeyboardBit_Long                0aaa a2 08                  LDX        #0x8                         X = 8: long pulse timing offset
                                       0aac 20 3b 0c               JSR        f_ValidatePulseTiming        Validate long range (7-12 ticks)
                                       0aaf d0 9e                  BNE        f_SetIREventFlagJump         Neither range: invalid. Abort
                                       0ab1 38                     SEC                                     Long valid: set carry (bit value = 1)
  AcceptKeyboardBit+1                   0ab2 24 18                  BIT        zp_IRPR_RawDeactEdge         BIT trick: CLC opcode as operand. Short=carry clear
  AcceptKeyboardBit
                                       0ab4 66 0d                  ROR        zp_IRShift4                  Rotate carry into IRShift4 bit 7
                                       0ab6 66 0c                  ROR        zp_IRShift3                  Cascade through IRShift3
                                       0ab8 66 0b                  ROR        zp_IRShift2                  Cascade through IRShift2
                                       0aba 66 0a                  ROR        zp_IRShift1                  Cascade through IRShift1
                                       0abc 66 09                  ROR        zp_IRShift0                  Complete into IRShift0 (LSB)
                                       0abe 88                     DEY                                     Decrement bits remaining
                                       0abf d0 c9                  BNE        f_AcquireIRBits              More bits: loop back
                                       0ac1 60                     RTS                                     All bits acquired: return
                             ****************************************************************************************************************************************************************************
                             * f_CheckIRInputProcessed (0x0AC2)                                                                                                                                         *
                             *                                                                                                                                                                          *
                             * Purpose: Guard against re-entering f_ProcessIRInput in the same cycle.                                                                                                   *
                             * Returns immediately if zp_IRInputProcessed is non-zero.                                                                                                                  *
                             ****************************************************************************************************************************************************************************
                             undefined __stdcall f_CheckIRInputProcessed(undefined pa
             undefined         A:1            <RETURN>
             undefined         X:1            param_1
             byte              Y:1            param_2
  f_CheckIRInputProcessed               0ac2 a5 1f                  LDA        zp_IRInputProcessed          Load processed flag
                                       0ac4 d0 02                  BNE        ReturnImmediately            Already processed: return immediately
                                       0ac6 f0 06                  BEQ        f_ProcessIRInput::ProcessI   Not processed: fall through to f_ProcessIRInput
  ReturnImmediately                     0ac8 60                     RTS                                     Early return for already-processed frames
                             ****************************************************************************************************************************************************************************
                             * f_ProcessIRInput (0x0AC9)                                                                                                                                                *
                             *                                                                                                                                                                          *
                             * Purpose: Critical-section handler for IR mouse/joystick data. Processes dual                                                                                             *
                             * channels via f_ProcessInputState, applies XOR quadrature transform via lookup                                                                                            *
                             * tables, updates PortD with next phase.                                                                                                                                   *
                             *                                                                                                                                                                          *
                             * WARNING: After 0x0AF0, zp_PortD holds quadrature-encoded IR data, not the                                                                                                *
                             * value from f_WriteAllPorts. Periodic refresh at 0x0882 will write garbled                                                                                                *
                             * state. Repeat frames avoid this by bypassing f_AcquireIRBits.                                                                                                            *
                             ****************************************************************************************************************************************************************************
                             byte __stdcall f_ProcessIRInput(void)
             byte              A:1            <RETURN>
  f_ProcessIRInput                      0ac9 a5 1f                  LDA        zp_IRInputProcessed          Check if already processed this cycle
                                       0acb d0 3d                  BNE        AltProcessing                Already done: take 4-sample idle path instead
                                       0acd 78                     SEI                                     SEI: enter critical section
  ProcessIRInput                        0ace 8a                     TXA                                     Save peripheral index (X) to A
                                       0acf 48                     PHA                                     Push X onto stack
                                       0ad0 a2 00                  LDX        #0x0                         X = 0: first input channel
                                       0ad2 20 2d 0b               JSR        f_ProcessInputState          Update phase + distance for channel 0
                                       0ad5 a2 01                  LDX        #0x1                         X = 1: second channel
                                       0ad7 20 2d 0b               JSR        f_ProcessInputState          Update phase + distance for channel 1
                                       0ada 68                     PLA                                     Restore X from stack
                                       0adb aa                     TAX                                     Transfer A back to X
                                       0adc a5 80                  LDA        hw_PortA                     Sample PortA for edge detection
                                       0ade 85 28                  STA        zp_ScratchC                  Store snapshot 1 into zp_ScratchC
                                       0ae0 84 2a                  STY        zp_PeriphTypeSave            Save peripheral type Y before quadrature clobbers it
                             Quadrature XOR transform. Force lower nibble idle, XOR with X and Y lookup tables. Result stored to zp_PortD (WARNING: clobbers).
                                       0ae2 a5 02                  LDA        zp_PortD                     Load PortD shadow as basis for next phase
                                       0ae4 09 0f                  ORA        #0xf                         Force lower nibble to 0xF (idle) before new phase
                                       0ae6 a4 1d                  LDY        zp_QuadPhase0                Load X-axis phase index from zp_QuadPhase0
                                       0ae8 59 4c 0b               EOR        0xb4c,Y=>f_ValidatePulseTi   XOR with X-axis table: encode X direction
                                       0aeb a4 1e                  LDY        zp_QuadPhase1                Load Y-axis phase index from zp_QuadPhase1
                                       0aed 59 50 0b               EOR        0xb50,Y=>LAB_0c4f            XOR with Y-axis table: encode Y on top of X
                                       0af0 85 02                  STA        zp_PortD                     Write to PortD shadow (WARNING: clobbers idle state)
                                       0af2 a9 01                  LDA        #0x1                         A = 1: completion flag
                                       0af4 85 1f                  STA        zp_IRInputProcessed          Mark IR input as processed
                                       0af6 a4 2a                  LDY        zp_PeriphTypeSave            Restore peripheral type Y
                                       0af8 a5 80                  LDA        hw_PortA                     Sample PortA for second snapshot
                                       0afa 85 29                  STA        zp_ScratchD                  Store snapshot 2 into zp_ScratchD
                                       0afc a9 01                  LDA        #0x1                         Reload A = 1 (clobbered by PortA read)
                                       0afe 85 1f                  STA        zp_IRInputProcessed          Confirm processing complete
                                       0b00 a5 1b                  LDA        zp_PendingModifier0          Test if any input data still pending
                                       0b02 05 1c                  ORA        zp_PendingModifier1          OR both channels: non-zero = still pending
                                       0b04 d0 02                  BNE        StatusCheckContinue          Pending: don't clear ready flag yet
                                       0b06 85 16                  STA        zp_IRInputReady              All consumed: clear IR ready flag
  StatusCheckContinue                   0b08 58                     CLI                                     CLI: exit critical section
                                       0b09 60                     RTS                                     Return
                             Alternative path: frame already handled. 4-sample idle detection with TinyDelay spacing. No quadrature transform.
  AltProcessing                         0b0a 78                     SEI                                     SEI: critical section
                                       0b0b 8a                     TXA                                     Save X via A
                                       0b0c 48                     PHA                                     Push to stack
                             4-sample idle detection. Take 4 PortA snapshots with TinyDelay spacing into ScratchA-D.
                                       0b0d a5 80                  LDA        hw_PortA                     Sample 1: read PortA
                                       0b0f 85 26                  STA        zp_ScratchA                  Store snapshot 1 into zp_ScratchA
                                       0b11 20 46 0b               JSR        f_TinyDelay                  Stabilisation delay (~11 us)
                                       0b14 a5 80                  LDA        hw_PortA                     Sample 2: read PortA
                                       0b16 85 27                  STA        zp_ScratchB                  Store snapshot 2 into zp_ScratchB
                                       0b18 20 46 0b               JSR        f_TinyDelay                  Stabilisation delay
                                       0b1b a5 80                  LDA        hw_PortA                     Sample 3: read PortA
                                       0b1d 85 28                  STA        zp_ScratchC                  Store snapshot 3 into zp_ScratchC
                                       0b1f 20 46 0b               JSR        f_TinyDelay                  Stabilisation delay
                                       0b22 a5 80                  LDA        hw_PortA                     Sample 4: read PortA
                                       0b24 85 29                  STA        zp_ScratchD                  Store snapshot 4 into zp_ScratchD
                                       0b26 20 46 0b               JSR        f_TinyDelay                  Final delay
                                       0b29 68                     PLA                                     Restore X from stack
                                       0b2a aa                     TAX                                     Transfer back to X
                                       0b2b 58                     CLI                                     CLI: exit critical section
                                       0b2c 60                     RTS                                     Return
                             ****************************************************************************************************************************************************************************
                             * f_ProcessInputState (0x0B2D)                                                                                                                                             *
                             *                                                                                                                                                                          *
                             * Purpose: Update phase counter and distance accumulator for one channel.                                                                                                  *
                             * Called twice per IR cycle (X=0, X=1). Auto-disables channel on saturation.                                                                                               *
                             * Timing: 27-29 cycles (18-19 us at 1.5 MHz)                                                                                                                               *
                             ****************************************************************************************************************************************************************************
                             undefined __stdcall f_ProcessInputState(void)
             undefined         A:1            <RETURN>
                             Snapshot PortA, then update phase counter (mod-4 Gray code) and distance accumulator for one channel.
  f_ProcessInputState                   0b2d a5 80                  LDA        hw_PortA                     Load current PortA state
                                       0b2f 95 26                  STA        0x26,X                       Store snapshot: X=0->0x26, X=1->0x27
                             Update 2-bit phase counter (modulo-4). Tracks Gray code: CW 0->1->3->2, CCW 0->2->3->1.
                                       0b31 b5 1d                  LDA        0x1d,X                       Load 2-bit phase position
                                       0b33 18                     CLC                                     Clear carry
                                       0b34 75 20                  ADC        0x20,X                       Add signed delta: +1 fwd, 0xFF rev, 0 idle
                                       0b36 29 03                  AND        #0x3                         Mask to 2 bits (modulo-4 Gray code phase)
                                       0b38 95 1d                  STA        0x1d,X                       Store updated phase
                             Update distance accumulator. Auto-disables channel (clears delta) when accumulator wraps to zero.
                                       0b3a b5 1b                  LDA        0x1b,X                       Load distance accumulator
                                       0b3c 18                     CLC                                     Clear carry
                                       0b3d 75 20                  ADC        0x20,X                       Add delta (accumulate total movement)
                                       0b3f 95 1b                  STA        0x1b,X                       Store updated accumulator
                                       0b41 d0 02                  BNE        DispatchRTS                  Non-zero: still active, exit
                                       0b43 95 20                  STA        0x20,X                       Saturated to zero: clear delta to halt channel
  DispatchRTS                           0b45 60                     RTS                                     Return
                             ****************************************************************************************************************************************************************************
                             * f_TinyDelay (0x0B46)                                                                                                                                                     *
                             *                                                                                                                                                                          *
                             * Purpose: ~17 cycle delay (~11.3 us) between PortA samples during idle detection.                                                                                         *
                             ****************************************************************************************************************************************************************************
                             undefined __stdcall f_TinyDelay(void)
             undefined         <UNASSIGNED>   <RETURN>
  f_TinyDelay                           0b46 a2 02                  LDX        #0x2                         X = 2: two-iteration delay
  TinyDelayLoop                         0b48 ca                     DEX                                     Decrement counter
                                       0b49 d0 fd                  BNE        TinyDelayLoop                Loop for 17-cycle delay
                                       0b4b 60                     RTS                                     Return
                             X-axis quadrature table (4 entries). Phase 0-3 to PortD pin pattern for XB1/XA1. Gray code: 10->00->01->11.
  tbl_QuadratureX                       0b4c 08                     db         8h                           Phase 0: 0x08 = 0b00001000 = XB1=1, XA1=0  →  Gray code: 10 (decimal 2)
                                       0b4d 00                     db         0h                           Phase 1: 0x00 = 0b00000000 = XB1=0, XA1=0  →  Gray code: 00 (decimal 0)
                                       0b4e 02                     db         2h                           Phase 2: 0x02 = 0b00000010 = XB1=0, XA1=1  →  Gray code: 01 (decimal 1)
                                       0b4f 0a                     db         Ah                           Phase 3: 0x0a = 0b00001010 = XB1=1, XA1=1  →  Gray code: 11 (decimal 3)
                             Y-axis quadrature table (4 entries). Phase 0-3 for YA1/YB1. 90-degree shifted: 11->10->00->01.
  tbl_QuadratureY                       0b50 05                     db         5h                           Phase 0: 0x05 = 0b00000101 = YA1=1, YB1=1  →  Gray code: 11 (decimal 3)
                                       0b51 04                     db         4h                           Phase 1: 0x04 = 0b00000100 = YA1=1, YB1=0  →  Gray code: 10 (decimal 2)
                                       0b52 00                     db         0h                           Phase 2: 0x00 = 0b00000000 = YA1=0, YB1=0  →  Gray code: 00 (decimal 0)
                                       0b53 01                     db         1h                           Phase 3: 0x01 = 0b00000001 = YA1=0, YB1=1  →  Gray code: 01 (decimal 1)
                             ****************************************************************************************************************************************************************************
                             * f_ValidatePulseDuration (0x0B54)                                                                                                                                         *
                             *                                                                                                                                                                          *
                             * Purpose: Classify mark-duration loop count X.                                                                                                                            *
                             *   X=0: invalid. X=1-7: A=0 (bit 0). X=8: invalid (dead zone).                                                                                                            *
                             *   X=9-25: A=1 (bit 1). X>=26: invalid.                                                                                                                                   *
                             * Returns: A=0/1 valid (N clear), A=0xFF invalid (N set).                                                                                                                  *
                             ****************************************************************************************************************************************************************************
                             undefined __stdcall f_ValidatePulseDuration(byte param_1)
             undefined         A:1            <RETURN>
             byte              X:1            param_1
  f_ValidatePulseDuration               0b54 e0 01                  CPX        #0x1                         Lower bound: X=0 invalid
                                       0b56 90 12                  BCC        ReturnInvalid                X < 1: invalid
                                       0b58 e0 1a                  CPX        #0x1a                        Upper bound: X >= 26 too long
                                       0b5a b0 0e                  BCS        ReturnInvalid                X >= 26: invalid
                                       0b5c e0 08                  CPX        #0x8                         X < 8: short mark
                                       0b5e 90 07                  BCC        ReturnZero                   X 1-7: return A=0 (bit 0)
                                       0b60 e0 09                  CPX        #0x9                         X=8: dead zone
                                       0b62 90 06                  BCC        ReturnInvalid                X=8: invalid
                                       0b64 a9 01                  LDA        #0x1                         X 9-25: long mark, A=1 (bit 1)
                                       0b66 60                     RTS                                     Return A=1 (valid long)
  ReturnZero                            0b67 a9 00                  LDA        #0x0                         Return A=0 (valid short)
                                       0b69 60                     RTS                                     Return
  ReturnInvalid                         0b6a a9 ff                  LDA        #0xff                        A=0xFF: invalid duration sentinel
                                       0b6c 60                     RTS                                     Return
                             ****************************************************************************************************************************************************************************
                             * f_ValidateSpaceTiming (0x0B6D)                                                                                                                                           *
                             *                                                                                                                                                                          *
                             * Purpose: Validate cumulative mark+space count X.                                                                                                                         *
                             *   X<13: invalid. X=13-47: valid (A=0, Z set). X>=48: invalid.                                                                                                            *
                             ****************************************************************************************************************************************************************************
                             undefined __stdcall f_ValidateSpaceTiming(byte param_1)
             undefined         A:1            <RETURN>
             byte              X:1            param_1
  f_ValidateSpaceTiming                 0b6d e0 0d                  CPX        #0xd                         X < 13: too short
                                       0b6f 90 f9                  BCC        f_ValidatePulseDuration::R   Invalid
                                       0b71 e0 30                  CPX        #0x30                        X >= 48: too long
                                       0b73 b0 f5                  BCS        f_ValidatePulseDuration::R   Invalid
                                       0b75 a9 00                  LDA        #0x0                         A=0: valid (Z set)
                                       0b77 60                     RTS                                     Return
                             ****************************************************************************************************************************************************************************
                             *                                                                                 FUNCTION                                                                                 *
                             ****************************************************************************************************************************************************************************
                             undefined __stdcall f_TimingAnchorRTS(void)
             undefined         <UNASSIGNED>   <RETURN>
  f_TimingAnchorRTS                     0b78 60                     RTS                                     Bare RTS: 12-cycle timing anchor for mark-count loops
                             ****************************************************************************************************************************************************************************
                             * f_CountIdleSamples (0x0B79)                                                                                                                                              *
                             *                                                                                                                                                                          *
                             * Purpose: Count how many of 4 PortA snapshots show the protocol line idle.                                                                                                *
                             * Returns count in X (0-4). Primes the cumulative space-count X.                                                                                                           *
                             * Snapshots in: zp_ScratchA, zp_ScratchB, zp_ScratchC, zp_ScratchD.                                                                                                        *
                             ****************************************************************************************************************************************************************************
                             undefined __stdcall f_CountIdleSamples(void)
             undefined         <UNASSIGNED>   <RETURN>
  f_CountIdleSamples                    0b79 a5 26                  LDA        zp_ScratchA                  Load snapshot 1 from zp_ScratchA
                                       0b7b 25 06                  AND        zp_ProtocolMask              Test protocol line in snapshot 1
                                       0b7d f0 16                  BEQ        ExitIdleCount                Line active: stop counting
                                       0b7f e8                     INX                                     Idle: increment X
                                       0b80 a5 27                  LDA        zp_ScratchB                  Load snapshot 2 from zp_ScratchB
                                       0b82 25 06                  AND        zp_ProtocolMask              Test protocol line
                                       0b84 f0 0f                  BEQ        ExitIdleCount                Active: stop
                                       0b86 e8                     INX                                     Idle: increment
                                       0b87 a5 28                  LDA        zp_ScratchC                  Load snapshot 3 from zp_ScratchC
                                       0b89 25 06                  AND        zp_ProtocolMask              Test protocol line
                                       0b8b f0 08                  BEQ        ExitIdleCount                Active: stop
                                       0b8d e8                     INX                                     Idle: increment
                                       0b8e a5 29                  LDA        zp_ScratchD                  Load snapshot 4 from zp_ScratchD
                                       0b90 25 06                  AND        zp_ProtocolMask              Test protocol line
                                       0b92 f0 01                  BEQ        ExitIdleCount                Active: stop
                                       0b94 e8                     INX                                     Idle: increment
  ExitIdleCount                         0b95 60                     RTS                                     Return: X = idle count (0-4)
                             ****************************************************************************************************************************************************************************
                             * IRQ (0x0B96)                                                                                                                                                             *
                             *                                                                                                                                                                          *
                             * Purpose: Precision timer ISR. Fires every ~163 t-states (108.7 us).                                                                                                      *
                             * Reloads counter, increments tick counter, optionally increments 12-bit                                                                                                   *
                             * pulse duration counter, writes PortC/D on odd ticks when data pending.                                                                                                   *
                             *                                                                                                                                                                          *
                             * Saves A only; X and Y NOT preserved.                                                                                                                                     *
                             * Counter latch=140, overhead=23. True period=163 t-states.                                                                                                                *
                             * Port update rate: every 2nd IRQ (~217 us). Max pulse: 4095 ticks (~445 ms).                                                                                              *
                             ****************************************************************************************************************************************************************************
                             undefined IRQ()
             undefined         <UNASSIGNED>   <RETURN>
  IRQ                                   0b96 48                     PHA                                     Save A on IRQ entry
                                       0b97 a9 8c                  LDA        #0x8c                        A = 140: counter reload value
                                       0b99 85 85                  STA        hw_LowerLatchWO              Write to lower latch
                                       0b9b a9 00                  LDA        #0x0                         A = 0: upper latch
                                       0b9d 85 84                  STA        hw_UpperLatchWO              Clear upper latch
                                       0b9f 85 88                  STA        hw_TransferWO                Trigger counter reload
                                       0ba1 e6 10                  INC        zp_IRQCount_LSB              Increment tick counter LSB
                                       0ba3 d0 02                  BNE        IRQ_CounterUpdated           Skip MSB unless LSB overflowed
                             Carries into MSB — only reached when LSB wraps from 0xFF to 0x00 (every 256 IRQ ticks = ~27.8 ms)
                                       0ba5 e6 11                  INC        zp_IRQCount_MSB              Increment tick counter MSB
                             Global tick counter updated successfully
  IRQ_CounterUpdated                    0ba7 a5 0f                  LDA        zp_IREventFlag               Check bit 7: is pulse measurement active?
                                       0ba9 10 19                  BPL        IRQ_CheckJoystick            Bit 7 clear: skip pulse counter
                             IR pulse measurement: increment 12-bit counter (max 4095). Sets IREventFlag bit 0 on overflow (timeout).
                                       0bab a5 04                  LDA        zp_PulseDuration_LSB         Load pulse width LSB
                                       0bad 18                     CLC                                     Clear carry
                                       0bae 69 01                  ADC        #0x1                         Add 1 tick
                                       0bb0 85 04                  STA        zp_PulseDuration_LSB         Store updated LSB
                                       0bb2 a5 05                  LDA        zp_PulseDuration_MSB         Load pulse width MSB
                                       0bb4 69 00                  ADC        #0x0                         Add carry from LSB
                                       0bb6 29 0f                  AND        #0xf                         Mask to 4 bits (12-bit range)
                                       0bb8 85 05                  STA        zp_PulseDuration_MSB         Store MSB
                                       0bba 05 04                  ORA        zp_PulseDuration_LSB         Test full counter for overflow (both bytes zero)
                                       0bbc d0 06                  BNE        IRQ_CheckJoystick            Non-zero: still counting
                             ****************************************************************************************************************************************************************************
                             * 12-bit pulse counter overflow path inside IRQ handler.                                                                                                                   *
                             * Reached only when both zp_PulseDuration_LSB ($0004) AND zp_PulseDuration_MSB ($0005) are zero after                                                                      *
                             * the masked increment at $0BB6 — meaning the counter wrapped through all 4096 values.                                                                                     *
                             * At 163 t-states per IRQ tick this requires ~4096 ticks = ~667                                                                                                            *
                             ****************************************************************************************************************************************************************************
                             If g_IRPulseWidth counter fully overflows set IR event flag
                             12-bit pulse counter overflow.\nSets bit 0 of IREventFlag to signal timeout to the main loop.\nThe acquisition routine (f_AcquireIRBits etc.) checks this and aborts.
                                       0bbe a5 0f                  LDA        zp_IREventFlag               Load IREventFlag: bit 7 is set (pulse measurement still active at overflow point)
                                       0bc0 09 01                  ORA        #0x1                         Set bit 0: signal acquisition timeout to the main loop
                                       0bc2 85 0f                  STA        zp_IREventFlag               Store updated flags; main loop acquisition routines test bit 0 before each step
                             Port update gating. Writes PortC/D on odd ticks only (halves rate to ~217 us). Requires IRInputReady bit 7.
  IRQ_CheckJoystick                     0bc4 a5 10                  LDA        zp_IRQCount_LSB              Load tick counter LSB
                                       0bc6 4a                     LSR        A                            Shift bit 0 into carry
                                       0bc7 90 10                  BCC        IRQ_ExitHandler              Even tick: skip port update
                             Check if joystick input event is pending
                                       0bc9 a5 16                  LDA        zp_IRInputReady              Check peripheral data pending
                                       0bcb 10 0c                  BPL        IRQ_ExitHandler              No data: skip port write
                             Joystick/mouse port write block — only reached on odd ticks when bit 7 of zp_IRInputReady is set (peripheral data waiting). Skipped on idle since zp_IRInputReady=0x00.
                                       0bcd a5 02                  LDA        zp_PortD                     Write PortD shadow to hw_PortD
                                       0bcf 85 83                  STA        hw_PortD                     Commit PortD
                                       0bd1 a5 03                  LDA        zp_PortC                     Load PortC shadow
                                       0bd3 85 82                  STA        hw_PortC                     Write to hw_PortC
                             Clear peripheral-data-pending flag — signals to main loop that port write is complete
                                       0bd5 a9 00                  LDA        #0x0                         A = 0: clear pending flag
                                       0bd7 85 1f                  STA        zp_IRInputProcessed          Clear IRInputProcessed: port write done
  IRQ_ExitHandler                       0bd9 68                     PLA                                     Restore A
                             RTI exits both NMI (no code) and IRQ.
  NMI                                   0bda 40                     RTI                                     RTI (shared with NMI which has no handler body)
                             ****************************************************************************************************************************************************************************
                             * f_DetectInputEdges (0x0BDB)                                                                                                                                              *
                             *                                                                                                                                                                          *
                             * Purpose: Monitor IRDT (PA0) and PRDT (PA3) for signal transitions.                                                                                                       *
                             * Maintains raw and active-high states with separate edge detection.                                                                                                       *
                             * Called twice per main loop: 0x086B (baseline) and 0x08B1 (final).                                                                                                        *
                             ****************************************************************************************************************************************************************************
                             byte __stdcall f_DetectInputEdges(void)
             byte              A:1            <RETURN>
  f_DetectInputEdges                    0bdb a5 17                  LDA        zp_IRPR_RawState             Load previous raw state
                                       0bdd 48                     PHA                                     Push for comparison
                                       0bde a5 80                  LDA        hw_PortA                     Read current PortA
                                       0be0 29 09                  AND        #00001001b                   Mask to PA0 and PA3 only
                                       0be2 85 17                  STA        zp_IRPR_RawState             Update raw state
                                       0be4 68                     PLA                                     Retrieve previous state
                                       0be5 49 ff                  EOR        #0xff                        Invert for edge detection
                                       0be7 25 17                  AND        zp_IRPR_RawState             AND: find deactivation edges (active->inactive)
                                       0be9 85 18                  STA        zp_IRPR_RawDeactEdge         Store deactivation edges
                                       0beb a5 19                  LDA        zp_IRPR_ActiveFlags          Load previous active-high state
                                       0bed 48                     PHA                                     Push for comparison
                                       0bee a5 17                  LDA        zp_IRPR_RawState             Reload raw state
                                       0bf0 49 09                  EOR        #00001001b                   XOR 0x09: convert to active-high convention
                                       0bf2 85 19                  STA        zp_IRPR_ActiveFlags          Store active-high state
                                       0bf4 68                     PLA                                     Retrieve old active-high
                                       0bf5 49 ff                  EOR        #0xff                        Invert for edge detection
                                       0bf7 25 19                  AND        zp_IRPR_ActiveFlags          AND: find activation edges (inactive->active)
                                       0bf9 85 1a                  STA        zp_IRPR_ActivationEdge       Store activation edges
                                       0bfb 60                     RTS                                     Return
                             ****************************************************************************************************************************************************************************
                             * f_ProcessFrontPanel (0x0BFC)                                                                                                                                             *
                             *                                                                                                                                                                          *
                             * Purpose: Read CDTV front panel buttons via PortB bits 0/1/3.                                                                                                             *
                             * Detect changes, look up scancode from tbl_TableFrontButtons (0x0C23),                                                                                                    *
                             * transmit press/release pair via f_SendKeyboardSerial with debounce.                                                                                                      *
                             * Bit 2 (PB2=_KBSE) excluded to protect keyboard handshake.                                                                                                                *
                             ****************************************************************************************************************************************************************************
                             undefined __stdcall f_ProcessFrontPanel(void)
             undefined         <UNASSIGNED>   <RETURN>
  f_ProcessFrontPanel                   0bfc a5 81                  LDA        hw_PortB                     Read front panel button state from hw_PortB
                                       0bfe 29 0b                  AND        #00001011b                   Mask to bits 0/1/3 (media controls)
                                       0c00 f0 1e                  BEQ        NoKeyDetected_ClearPrevSta   No button: clear previous state, return
                             ****************************************************************************************************************************************************************************
                             * f_ProcessFrontPanel — button detected and changed path ($0C02-$0C1D).                                                                                                    *
                             * Reached when hw_PortB AND $0B is non-zero (a front panel button is pressed) AND that state                                                                               *
                             * differs from zp_FrontPanelPrevious ($0024).                                                                                                                              *
                             *                                                                                                                                                                          *
                             * Bit mapping (PortB AND $0B):                                                                                                                                             *
                             *   bit 0 = Stop (index 1  scancode $72)                                                                                                                                   *
                             *   bit 1 = Play/Pause (index 2  scancode $73)                                                                                                                             *
                             *   bit 3 = Rewind (index 8  scancode $75)                                                                                                                                 *
                             *   bits 4-7: not involved (PB2=_KBSE excluded at $0BFE mask)                                                                                                              *
                             *                                                                                                                                                                          *
                             * Protocol:                                                                                                                                                                *
                             *   1. Save button index in X  push onto stack                                                                                                                             *
                             *   2. Look up Amiga scancode from tbl_TableFrontButtons[X] ($0C23)                                                                                                        *
                             *   3. Transmit press via f_SendKeyboardSerial                                                                                                                             *
                             *   4. 256-iteration debounce delay (~854 µs)                                                                                                                              *
                             *   5. Pop index  look up same scancode                                                                                                                                    *
                             *   6. Set bit 7 (key release)                                                                                                                                             *
                             *   7. Tail-call f_SendKeyboardSerial for release                                                                                                                          *
                             *                                                                                                                                                                          *
                             * Note: the double lookup (press and release) uses the same table[X] read; no state is                                                                                     *
                             * retained between the two transmissions. The Amiga differentiates press/release                                                                                           *
                             * by bit 7 of the scancode byte.                                                                                                                                           *
                             ****************************************************************************************************************************************************************************
                                       0c02 aa                     TAX                                     X = button index (PortB AND $0B); save for release lookup
                                       0c03 45 24                  EOR        zp_FrontPanelPrevious        XOR with zp_FrontPanelPrevious: check if button state has changed
                                       0c05 f0 1b                  BEQ        ExitNoChange                 Unchanged: return without retransmitting (debounce guard)
                                       0c07 86 24                  STX        zp_FrontPanelPrevious        New state differs: save as new previous so the same event is not re-sent next iteration
                                       0c09 8a                     TXA                                     Transfer button index back to A for table lookup
                                       0c0a 48                     PHA                                     Push button index onto stack — needed for release event after debounce
                             *** Ghidra bug, should point to the table.
                                       0c0b bd 23 0c               LDA        0xc23,X=>f_ResetPulseTimer   Load Amiga scancode for this button index from tbl_TableFrontButtons
                                       0c0e 20 ad 0e               JSR        f_SendKeyboardSerial         Transmit press scancode via f_SendKeyboardSerial (PA1/PA2 serial)
                                       0c11 a0 00                  LDY        #0x0                         Y = 0: start 256-iteration debounce delay to prevent bounce re-triggering
  DebounceDelay                         0c13 88                     DEY                                     Decrement counter — each iteration costs ~4 t-states × 256 = ~1024 t-states total
                                       0c14 d0 fd                  BNE        DebounceDelay                Loop until debounce delay expires
                                       0c16 68                     PLA                                     Pop saved button index from stack
                                       0c17 aa                     TAX                                     Transfer to X for release table lookup
                             *** Ghidra bug, should point to the table.
                                       0c18 bd 23 0c               LDA        0xc23,X=>f_ResetPulseTimer   Load same scancode for release (same table  same index)
                                       0c1b 09 80                  ORA        #0x80                        Set bit 7: Amiga keyboard protocol marks key releases with bit 7 high
                                       0c1d 4c ad 0e               JMP        f_SendKeyboardSerial         Tail-call f_SendKeyboardSerial for release event; RTS of f_SendKeyboardSerial returns to caller
                             -- Flow Override: CALL_RETURN (CALL_TERMINATOR)
  NoKeyDetected_ClearPrev               0c20 85 24                  STA        zp_FrontPanelPrevious        No button: clear previous
  ExitNoChange                          0c22 60                     RTS                                     Return
                             Front panel scancode table (11 entries). Index = PortB bits 3/1/0. Indices 4-7 unused (_KBSE conflict).
  tbl_TableFrontButtons                 0c23 00                     db         0h                           0 0 0 0 Index 0: no key pressed
                                       0c24 72                     db         72h                          0 0 0 1 Index 1: 0x72 (Stop)
                                       0c25 73                     db         73h                          0 0 1 0 Index 2: 0x73 (Play/Pause)
                                       0c26 74                     db         74h                          0 0 1 1 Index 3: 0x74 (Rewind)
                                       0c27 00                     db         0h                           0 1 0 0 Index 4: unused (_KBSE pin conflict)
                                       0c28 00                     db         0h                           0 1 0 1 Index 5: unused (_KBSE pin conflict)
                                       0c29 00                     db         0h                           0 1 1 0 Index 6: unused (_KBSE pin conflict)
                                       0c2a 00                     db         0h                           0 1 1 1 Index 7: unused (_KBSE pin conflict)
                                       0c2b 75                     db         75h                          1 0 0 0 Index 8: 0x75 (Fast Forward)
                                       0c2c 76                     db         76h                          1 0 0 1 Index 9: 0x76 (Volume Up?)
                                       0c2d 77                     db         77h                          1 0 1 0 Index 10: 0x77 (Volume Down?)
                             ****************************************************************************************************************************************************************************
                             * f_ResetPulseTimer (0x0C2E)                                                                                                                                               *
                             *                                                                                                                                                                          *
                             * Purpose: Zero the 16-bit pulse counter and set IREventFlag bit 7 to enable                                                                                               *
                             * IRQ-driven pulse counting. Must be called before each measurement.                                                                                                       *
                             ****************************************************************************************************************************************************************************
                             byte __stdcall f_ResetPulseTimer(void)
             byte              A:1            <RETURN>
  f_ResetPulseTimer                     0c2e a9 00                  LDA        #0x0                         A = 0: clear both counter bytes
                                       0c30 85 04                  STA        zp_PulseDuration_LSB         Zero pulse duration LSB
                                       0c32 85 05                  STA        zp_PulseDuration_MSB         Zero pulse duration MSB
                                       0c34 a5 0f                  LDA        zp_IREventFlag               Load IREventFlag
                                       0c36 09 80                  ORA        #0x80                        Set bit 7: enable IRQ pulse counting
                                       0c38 85 0f                  STA        zp_IREventFlag               Store: IRQ will now count ticks
                                       0c3a 60                     RTS                                     Return
                             ****************************************************************************************************************************************************************************
                             * f_ValidatePulseTiming (0x0C3B)                                                                                                                                           *
                             *                                                                                                                                                                          *
                             * Purpose: Validate pulse duration against indexed timing bounds.                                                                                                          *
                             * Clears IREventFlag bit 7 first (stops counting).                                                                                                                         *
                             * Returns: A=0 Z=1 (valid), A=0xFF Z=0 (invalid).                                                                                                                          *
                             *                                                                                                                                                                          *
                             * Windows (X -> ticks): 0:58-250, 2:13-31, 4:38-50, 6:4-10,                                                                                                                *
                             *   8:11-18, 10:6-19, 12:1-6                                                                                                                                               *
                             ****************************************************************************************************************************************************************************
                             undefined __stdcall f_ValidatePulseTiming(byte param_1)
             undefined         A:1            <RETURN>
             byte              X:1            param_1
  f_ValidatePulseTiming                 0c3b a5 0f                  LDA        zp_IREventFlag               Load IREventFlag
                                       0c3d 29 7f                  AND        #0x7f                        Clear bit 7: stop pulse counting
                                       0c3f 85 0f                  STA        zp_IREventFlag               Store cleaned flag
                                       0c41 a5 04                  LDA        zp_PulseDuration_LSB         Load measured pulse duration in ticks
                                       0c43 dd 53 0c               CMP        tbl_TimingBoundsLower,para   Compare against lower bound[X]
                                       0c46 90 08                  BCC        TimingInvalid                Too short: invalid
                                       0c48 dd 54 0c               CMP        tbl_TimingBoundsUpper,para   Compare against upper bound[X+1]
  g_EorTableHigh                        0c4b b0 03                  BCS        TimingInvalid                Too long: invalid
                                       0c4d a9 00                  LDA        #0x0                         A = 0: valid
  LAB_0c4f                              0c4f 60                     RTS                                     Return (Z set)
  TimingInvalid                         0c50 a9 ff                  LDA        #0xff                        A = 0xFF: invalid
                                       0c52 60                     RTS                                     Return (Z clear)
                             Timing bounds table. Interleaved min/max pairs for protocol elements. Addressed as [X] and [X+1].
  tbl_TimingBoundsLower                 0c53 3a                     db         3Ah                          0: Header pulse lower bound (58 ticks = 8.1ms)
  tbl_TimingBoundsUpper                 0c54 fa                     db         FAh                          1: Header pulse upper bound (250 ticks = 35ms)
                                       0c55 0d                     db         Dh                           2: Bit '1' lower bound (13 ticks = 1.8ms)
                                       0c56 1f                     db         1Fh                          3: Bit '1' upper bound (31 ticks = 4.3ms)
                                       0c57 26                     db         26h                          4: Header space lower bound (38 ticks = 5.3ms)
                                       0c58 32                     db         32h                          5; Header space upper bound (50 ticks = 7.0ms)
                                       0c59 04                     db         4h                           6: Short pulse lower bound (4 ticks = 560µs)
                                       0c5a 0a                     db         Ah                           7: Short pulse upper bound (10 ticks = 1.4ms)
                                       0c5b 0b                     db         Bh                           8: Long pulse lower bound (11 ticks = 1.5ms)
                                       0c5c 12                     db         12h                          9: Long pulse upper bound (18 ticks = 2.5ms)
                                       0c5d 06                     db         6h                           10: Alt timing lower bound (6 ticks = 840µs)
                                       0c5e 13                     db         13h                          11: Alt timing upper bound (19 ticks = 2.7ms)
                                       0c5f 01                     db         1h                           12: Keyboard bit lower bound (1 tick = 140µs)
                                       0c60 06                     db         6h                           13: Keyboard bit upper bound (6 ticks = 840µs)
                             ****************************************************************************************************************************************************************************
                             * f_ProcessIRDataAndSetFlags (0x0C61)                                                                                                                                      *
                             *                                                                                                                                                                          *
                             * Purpose: Verify IR frame checksums and extract decoded fields.                                                                                                           *
                             *                                                                                                                                                                          *
                             * Two paths (selected by IREventFlag bit 2):                                                                                                                               *
                             *   bit2=0: Standard 20-bit (numpad/media). Two checksums.                                                                                                                 *
                             *     Output: zp_IRCommandByte, zp_ScratchB (direction)                                                                                                                    *
                             *   bit2=1: Extended 40-bit (keyboard). Three checksums.                                                                                                                   *
                             *     Output: zp_IRCommandByte (modifier bitmask), zp_KeyboardIndex                                                                                                        *
                             *                                                                                                                                                                          *
                             * Side effects: IRShift0-2 destructively modified on 40-bit path.                                                                                                          *
                             ****************************************************************************************************************************************************************************
                             byte __stdcall f_ProcessIRDataAndSetFlags(void)
             byte              A:1            <RETURN>
  f_ProcessIRDataAndSetFl               0c61 a5 0f                  LDA        zp_IREventFlag               Load IREventFlag for guard check
                                       0c63 29 03                  AND        #0x3                         Isolate error and event bits
                                       0c65 05 16                  ORA        zp_IRInputReady              Combine with IR input ready
                                       0c67 05 23                  ORA        zp_PeripheralDataReady       Combine with peripheral data semaphore
                                       0c69 d0 3c                  BNE        ReturnFromFunction           Any flag set: return without decoding
                                       0c6b a5 0f                  LDA        zp_IREventFlag               Reload IREventFlag for bit 2 test
                                       0c6d 29 04                  AND        #0x4                         Isolate bit 2: 40-bit frame selector
                                       0c6f d0 37                  BNE        f_Decode40BitIRKeyboard      40-bit: branch to f_Decode40BitIRKeyboard
                             Standard 20-bit decode. Extract command from IRShift2, verify against complement in IRShift3/4.
                                       0c71 a5 0b                  LDA        zp_IRShift2                  Load IRShift2: command byte
                                       0c73 85 26                  STA        zp_ScratchA                  Stage for checksum comparison
                                       0c75 a5 0c                  LDA        zp_IRShift3                  Load IRShift3: direction nibble + complement
                                       0c77 85 28                  STA        zp_ScratchC                  Stage for rotation chain
                                       0c79 29 0f                  AND        #0xf                         Isolate direction nibble (lower 4 bits)
                                       0c7b 85 27                  STA        zp_ScratchB                  Store direction flag
                                       0c7d a5 0d                  LDA        zp_IRShift4                  Load IRShift4: bitwise complement
                                       0c7f 85 29                  STA        zp_ScratchD                  Stage for rotation alignment
                             Nibble alignment: 4 right-shifts to align complement for XOR.
                                       0c81 a2 04                  LDX        #0x4                         X = 4: rotation iterations
  RotateLoopA                           0c83 46 29                  LSR        zp_ScratchD                  LSR complement byte
                                       0c85 66 28                  ROR        zp_ScratchC                  ROR command byte through carry
                                       0c87 ca                     DEX                                     Decrement counter
                                       0c88 d0 f9                  BNE        RotateLoopA                  Loop until done
                             Checksum 1: command XOR complement XOR 0xFF. Valid = 0x00.
                                       0c8a a5 26                  LDA        zp_ScratchA                  Reload staged command byte
                                       0c8c 45 28                  EOR        zp_ScratchC                  XOR with rotated complement
                                       0c8e 49 ff                  EOR        #0xff                        Invert: valid = 0x00
                                       0c90 d0 65                  BNE        SetIRFlagAndExit             Checksum 1 failed: discard frame
                             Checksum 2: direction XOR complement XOR 0x0F. Valid = 0x00.
                                       0c92 a5 27                  LDA        zp_ScratchB                  Reload direction nibble
                                       0c94 45 29                  EOR        zp_ScratchD                  XOR with complement
                                       0c96 49 0f                  EOR        #0xf                         Invert lower nibble: valid = 0x00
                                       0c98 d0 5d                  BNE        SetIRFlagAndExit             Checksum 2 failed: discard frame
                             Both passed. Extract decoded command by shifting IRShift3 into IRShift2.
                                       0c9a a2 04                  LDX        #0x4                         X = 4: extraction rotations
  RotateLoopB                           0c9c 46 0c                  LSR        zp_IRShift3                  Shift IRShift3 right
                                       0c9e 66 0b                  ROR        zp_IRShift2                  Rotate into IRShift2
                                       0ca0 ca                     DEX
                                       0ca1 d0 f9                  BNE        RotateLoopB                  repeat 4 times
                                       0ca3 a5 0b                  LDA        zp_IRShift2                  Load decoded 8-bit command
                                       0ca5 85 07                  STA        zp_IRCommandByte             Store as zp_IRCommandByte
  ReturnFromFunction                    0ca7 60                     RTS                                     Return
                             ****************************************************************************************************************************************************************************
                             * f_Decode40BitIRKeyboard (0x0CA8)                                                                                                                                         *
                             *                                                                                                                                                                          *
                             * Decodes a 40-bit IR keyboard frame from shift registers IRShift0..4.                                                                                                     *
                             * Outputs:                                                                                                                                                                 *
                             *   zp_IRCommandByte  = qualifier bitmask (8 qualifier keys, one-hot per Amiga spec)                                                                                       *
                             *   zp_KeyboardIndex  = IR keycode index (0 = no key pressed)                                                                                                              *
                             * Note: zp_IRCommandByte is referred to as qualifier bitmask on this path.                                                                                                 *
                             * The term modifier in earlier annotations is incorrect — the Amiga Hardware                                                                                               *
                             * Reference Manual calls these keys qualifiers.                                                                                                                            *
                             ****************************************************************************************************************************************************************************
  f_Decode40BitIRKeyboard               0ca8 a5 09                  LDA        zp_IRShift0                  Load IRShift0: modifier bitmask byte
                                       0caa 85 26                  STA        zp_ScratchA                  Stash modifier in zp_ScratchA (scratch use)
                                       0cac a5 0a                  LDA        zp_IRShift1                  Load IRShift1: keyboard table index
                                       0cae 85 27                  STA        zp_ScratchB                  Stash keyboard byte in zp_ScratchB (scratch use)
                                       0cb0 a5 0b                  LDA        zp_IRShift2                  Load IRShift2: complement byte
                                       0cb2 85 29                  STA        zp_ScratchD                  Save for rotation chain
                                       0cb4 29 0f                  AND        #0xf                         Isolate lower nibble
                                       0cb6 85 28                  STA        zp_ScratchC                  Save for checksum 3
                                       0cb8 a5 0c                  LDA        zp_IRShift3                  Load IRShift3: complement of byte 1
                                       0cba 85 2a                  STA        zp_PeriphTypeSave            Save for checksum 2 chain
                                       0cbc a5 0d                  LDA        zp_IRShift4                  Load IRShift4: complement nibble
                                       0cbe 85 2b                  STA        zp_IRScratch                 Store IRShift4 in zp_IRScratch — after 4 LSRs the upper nibble slides to bits[3:0] for checksum 3
                             Align complement bytes by 4 right-rotations so lower nibbles align with data bytes for XOR comparison.
                                       0cc0 a2 04                  LDX        #0x4                         X = 4: one nibble of rotation
  RotateLoopC                           0cc2 46 2b                  LSR        zp_IRScratch                 LSR zp_IRScratch
                                       0cc4 66 2a                  ROR        zp_PeriphTypeSave            ROR through rotation chain
                                       0cc6 66 29                  ROR        zp_ScratchD                  ROR next byte in chain
                                       0cc8 ca                     DEX
                                       0cc9 d0 f7                  BNE        RotateLoopC                  Repeat until 4 shifts done (one nibble aligned)
                             Checksum 1: modifier XOR complement XOR 0xFF = 0x00.
                                       0ccb a5 26                  LDA        zp_ScratchA                  Reload modifier byte
                                       0ccd 45 29                  EOR        zp_ScratchD                  XOR with aligned complement
                                       0ccf 49 ff                  EOR        #0xff                        Invert: valid = 0x00
                                       0cd1 d0 24                  BNE        SetIRFlagAndExit             Failed: abort
                             Checksum 2: keyboard XOR complement XOR 0xFF = 0x00.
                                       0cd3 a5 27                  LDA        zp_ScratchB                  Reload keyboard byte
                                       0cd5 45 2a                  EOR        zp_PeriphTypeSave            XOR with complement
                                       0cd7 49 ff                  EOR        #0xff                        Invert: valid = 0x00
                                       0cd9 d0 1c                  BNE        SetIRFlagAndExit             Failed: abort
                             Checksum 3: IRShift2[3:0] XOR IRShift4[7:4] (= IRScratch>>4 after 4 LSRs) XOR 0x0F = 0x00.
                                       0cdb a5 28                  LDA        zp_ScratchC                  Reload lower nibble of IRShift2
                                       0cdd 45 2b                  EOR        zp_IRScratch                 XOR with IRScratch (= IRShift4[7:4] shifted to lower nibble after 4 LSRs)
                                       0cdf 49 0f                  EOR        #0xf                         Invert: valid = 0x00
                                       0ce1 d0 14                  BNE        SetIRFlagAndExit             Failed: abort
                             All passed. Right-rotate [IRShift2:1:0] by 4 to strip complement nibble. Destructive.
                                       0ce3 a2 04                  LDX        #0x4                         X = 4: strip complement nibble
  RotateLoopD                           0ce5 46 0b                  LSR        zp_IRShift2                  LSR IRShift2
                                       0ce7 66 0a                  ROR        zp_IRShift1                  ROR IRShift1
                                       0ce9 66 09                  ROR        zp_IRShift0                  ROR IRShift0: modifier bitmask assembles here
                                       0ceb ca                     DEX
                                       0cec d0 f7                  BNE        RotateLoopD                  Repeat until 4 shifts complete
                             Store decoded fields. IRShift0 now = modifier bitmask (8 keys),
                             IRShift1 now = keyboard table index (0 = no key pressed).
                                       0cee a5 09                  LDA        zp_IRShift0                  Load decoded modifier bitmask
                                       0cf0 85 07                  STA        zp_IRCommandByte             Store as zp_IRCommandByte (modifier bitmask)
                                       0cf2 a5 0a                  LDA        zp_IRShift1                  Load decoded keyboard index (0=no key)
                                       0cf4 85 08                  STA        zp_KeyboardIndex             Store as zp_KeyboardIndex
                                       0cf6 60                     RTS                                     Return: frame decoded
                             Checksum failure. Set IREventFlag bit 0. Not reachable from valid frames.
  SetIRFlagAndExit                      0cf7 a5 0f                  LDA        zp_IREventFlag               Reload IREventFlag
                                       0cf9 09 01                  ORA        #0x1                         Set bit 0: checksum failure
                                       0cfb 85 0f                  STA        zp_IREventFlag               Store error flag
                                       0cfd 60                     RTS                                     Return: frame discarded
                             ****************************************************************************************************************************************************************************
                             * f_JumpTableDispatcher (0x0CFE)                                                                                                                                           *
                             *                                                                                                                                                                          *
                             * Purpose: Guard and dispatch IR frame. Checks 3 semaphores, then uses                                                                                                     *
                             * zp_IRHeaderNibble as index into tbl_PeripheralHandlers via RTS trick.                                                                                                    *
                             *                                                                                                                                                                          *
                             * Jump table (0x0D1B):                                                                                                                                                     *
                             *   0 -> f_ProcessMouse (0x0D43)  1 -> f_ProcessJoystick (0x0D6C)                                                                                                          *
                             *   2 -> f_KeyboardDispatchThunk (0x0D21) -> f_ProcessKeyboardEvent                                                                                                        *
                             ****************************************************************************************************************************************************************************
                             undefined __stdcall f_JumpTableDispatcher(void)
             undefined         <UNASSIGNED>   <RETURN>
                             Guard: check 3 semaphores. Then use zp_IRHeaderNibble as index into handler table via RTS trick.
  f_JumpTableDispatcher                 0cfe a5 0f                  LDA        zp_IREventFlag               Load IREventFlag: check error bit
                                       0d00 29 01                  AND        #0x1                         Isolate error bit
                                       0d02 05 16                  ORA        zp_IRInputReady              Combine with input-ready flag
                                       0d04 05 23                  ORA        zp_PeripheralDataReady       Combine with peripheral semaphore
                                       0d06 d0 12                  BNE        ExitTableDispatcher          Any flag set: exit without dispatch
                                       0d08 a5 0e                  LDA        zp_IRHeaderNibble            Load zp_IRHeaderNibble
                                       0d0a 29 0f                  AND        #0xf                         Mask to lower nibble
                                       0d0c c9 03                  CMP        #0x3                         Bounds check: only 0, 1, 2 valid
                                       0d0e b0 0a                  BCS        ExitTableDispatcher          >= 3: no handler. Exit
                                       0d10 0a                     ASL        A                            Double for word offset into jump table
                                       0d11 aa                     TAX                                     Transfer to X for indexed read
                                       0d12 bd 1c 0d               LDA        0xd1c,X=>LAB_0d3a            Load high byte of handler address (target-1)
                                       0d15 48                     PHA                                     Push high byte
                             *** Ghidra bug, should point to the table.
                                       0d16 bd 1b 0d               LDA        0xd1b,X=>StoreToPortD+1      Load low byte of handler address
                                       0d19 48                     PHA                                     Push low byte
  ExitTableDispatcher                   0d1a 60                     RTS                                     RTS pops address, adds 1, jumps to handler
                             Jump table: [0] f_ProcessMouse, [1] f_ProcessJoystick, [2] f_KeyboardDispatchThunk.
  tbl_PeripheralHandlers                0d1b 42 0d                  dw         D42h                         Entry 0: f_ProcessMouse (IRHeaderNibble=0x0, mouse/portD)
                                       0d1d 6b 0d                  dw         D6Bh                         Entry 1: f_ProcessJoystick (IRHeaderNibble=0x1, joystick/portC)
                                       0d1f 20 0d                  dw         D20h                         Entry 2: f_KeyboardDispatchThunk (IRHeaderNibble=0x2, keyboard)
                             ****************************************************************************************************************************************************************************
                             * f_KeyboardDispatchThunk ($0D21)                                                                                                                                          *
                             * Purpose: Relay dispatch for IR keyboard frames (zp_IRHeaderNibble=2).                                                                                                    *
                             * Reached via the RTS jump-table trick in f_JumpTableDispatcher: the table entry at $0D1F holds address $0D20 (target-1); RTS pops and adds 1 to land here.                *
                             * Jumps unconditionally to f_ProcessKeyboardEvent ($0F0E).                                                                                                                 *
                             * The RTS at $0D24 is dead code — it immediately follows an unconditional JMP and has no callers.                                                                          *
                             ****************************************************************************************************************************************************************************
                             thunk byte __stdcall f_KeyboardDispatchThunk(void)
                               Thunked-Function: f_ProcessKeyboardEvent
             byte              A:1            <RETURN>
  f_KeyboardDispatchThunk               0d21 4c 0e 0f               JMP        f_ProcessKeyboardEvent       Jump table entry for IRHeaderNibble=2 (keyboard). RTS trick lands here; JMP relays to f_ProcessKeyboardEvent
                             -- Flow Override: CALL_RETURN (CALL_TERMINATOR)
                             ****************************************************************************************************************************************************************************
                             * DEAD CODE — unreachable after unconditional JMP at $0D21. Nothing branches or jumps directly to $0D24.                                                                   *
                             ****************************************************************************************************************************************************************************
                                       0d24 60                     RTS                                     DEAD — unreachable; follows unconditional JMP at $0D21
                             ****************************************************************************************************************************************************************************
                             * f_PrepareJoyMousePorts (0x0D25)                                                                                                                                          *
                             *                                                                                                                                                                          *
                             * Purpose: Encode 2-bit button field from zp_IRCommandByte bits[1:0] into                                                                                                  *
                             * active-low upper nibble. Route to PortD (mouse) or PortC (joystick).                                                                                                     *
                             *                                                                                                                                                                          *
                             * Encoding: 00->0x70 (none), 01->0x60 (A), 10->0x50 (B), 11->0x40 (both)                                                                                                   *
                             ****************************************************************************************************************************************************************************
                             undefined f_PrepareJoyMousePorts()
             undefined         <UNASSIGNED>   <RETURN>
  f_PrepareJoyMousePorts                0d25 a6 0e                  LDX        zp_IRHeaderNibble            Load zp_IRHeaderNibble to select port
                                       0d27 a5 07                  LDA        zp_IRCommandByte             Load zp_IRCommandByte for button field
                                       0d29 29 03                  AND        #0x3                         Mask bits[1:0]
                                       0d2b 49 07                  EOR        #0x7                         EOR #7: invert to active-low
                                       0d2d 0a                     ASL        A                            ASL step 1/4: shift to upper nibble
                                       0d2e 0a                     ASL        A                            Step 2 of 4
                                       0d2f 0a                     ASL        A                            Step 3 of 4
                                       0d30 0a                     ASL        A                            ASL step 4/4
                                       0d31 e0 00                  CPX        #0x0                         Test: 0=mouse (PortD), non-zero=joystick (PortC)
                                       0d33 f0 03                  BEQ        StoreToPortD                 Mouse: merge into PortD
                                       0d35 85 03                  STA        zp_PortC                     Joystick: write directly to PortC
                                       0d37 60                     RTS                                     Return (joystick path)
  StoreToPortD+1                        0d38 85 26                  STA        zp_ScratchA                  Stage nibble in zp_ScratchA (temp)
  StoreToPortD
  LAB_0d3a                              0d3a a5 02                  LDA        zp_PortD                     Load PortD shadow (lower nibble = quadrature)
                                       0d3c 29 0f                  AND        #0xf                         Clear upper nibble
                                       0d3e 05 26                  ORA        zp_ScratchA                  Merge new button nibble
                                       0d40 85 02                  STA        zp_PortD                     Write merged value to PortD shadow
                                       0d42 60                     RTS                                     Return (mouse path)
                             ****************************************************************************************************************************************************************************
                             * f_ProcessMouse (0x0D43)                                                                                                                                                  *
                             *                                                                                                                                                                          *
                             * Purpose: Decode IR mouse frame (IRHeaderNibble=0). Routes by IRCommandByte>>2:                                                                                           *
                             *   0x00-0x0A: button/idle -> PeripheralTypeTail -> f_Quadrature                                                                                                           *
                             *   0x0B-0x18: media key -> f_MediaKeyCPCP (CPCP nibble for U62)                                                                                                           *
                             *   0x19+: numpad repeat -> _KBSE check then f_ProcessNumbPad                                                                                                              *
                             *                                                                                                                                                                          *
                             * Outputs: portD (buttons), portB (CPCP), kbd serial (numpad).                                                                                                             *
                             * portC always 0xFF (mouse never writes joystick port).                                                                                                                    *
                             ****************************************************************************************************************************************************************************
                             undefined f_ProcessMouse()
             undefined         <UNASSIGNED>   <RETURN>
  f_ProcessMouse                        0d43 a9 0f                  LDA        #00001111b                   A = 0x0F: set button lines to idle
                             f_ProcessMouse (0x0D43) — port output summary (fuzz-verified across all 256 mouse commands):
                               portD bits[6:4] — mouse button state (active-low, set by f_PrepareJoyMousePorts):
                                 0x7F = no button    (MI bits[1:0] = 00)
                                 0x6F = Button A     (MI bits[1:0] = 01)
                                 0x5F = Button B     (MI bits[1:0] = 10)
                                 0x4F = Button A+B   (MI bits[1:0] = 11)
                               portB bits[7:4] — CPCP media key (MI>>2 in 0x0B–0x18):
                                 9 documented keys (CPCP 1–9) + 4 undocumented (CPCP 0xC–0xF)
                                 Scancode generated by U62 from portB signal — not by U75
                               portC — always 0xFF; mouse path never writes joystick port
                               Keyboard serial — MI>>2 >= 0x19 only; via f_ProcessNumbPad/_KBSE handshake
                                 tbl_NumPadScancodes[0–11] at 0x0F02–0x0F0D: KP0–9 Enter Escape
                                 Indices outside 0–11 are OOB reads into instruction bytes (27 unique cases)
                                       0d45 85 01                  STA        zp_PortB                     Write idle to PortB shadow
                                       0d47 20 25 0d               JSR        f_PrepareJoyMousePorts       Encode button nibble from IRCommandByte bits[1:0]
                                       0d4a a5 07                  LDA        zp_IRCommandByte             Reload IRCommandByte to extract command class
                                       0d4c 4a                     LSR        A                            Shift right twice: divide by 4
                                       0d4d 4a                     LSR        A                            Second shift — result is MI>>2; ranges: <0x0B=directional, 0x0B-0x18=media, >=0x19=numpad
                                       0d4e c9 0b                  CMP        #00001011b                   < 0x0B: directional/button command
                                       0d50 90 21                  BCC        PeripheralTypeTail           Branch to PeripheralTypeTail for quadrature
                                       0d52 c9 19                  CMP        #0x19                        < 0x19: media key range
                                       0d54 90 32                  BCC        f_MediaKeyCPCP               Media key: encode CPCP for U62
                                       0d56 c5 14                  CMP        zp_ModifierIndexPrior        Compare with prior for duplicate suppression
                                       0d58 d0 03                  BNE        CheckKBSEHandshake           New state: process as fresh event
                             ****************************************************************************************************************************************************************************
                             * No-change guard inside f_ProcessMouse — numpad/undocumented range ($D52-$D5C).                                                                                           *
                             * This guard is reached when IRCommandByte>>2 is in the range $19-$3F (numpad/undocumented codes)                                                                          *
                             * AND the current value equals the value stored in zp_ModifierIndexPrior ($0014) from the previous                                                                         *
                             * frame. If equal the frame carries no new information and is silently discarded.                                                                                          *
                             *                                                                                                                                                                          *
                             * Context:                                                                                                                                                                 *
                             *   $0D56: CMP zp_ModifierIndexPrior  — compare current command>>2 against previous                                                                                        *
                             *   $0D58: BNE $0D5D                  — different: process event                                                                                                           *
                             *   $0D5A: STA $14                    — same: update prior with the identical value (no-op semantically)                                                                   *
                             *   $0D5C: RTS                        — return without transmitting any scancode                                                                                           *
                             *                                                                                                                                                                          *
                             * This is the only early-exit path in f_ProcessMouse that avoids both f_ProcessNumbPad and the                                                                             *
                             * _KBSE wait loop. Triggered by repeat frames from a held button.                                                                                                          *
                             ****************************************************************************************************************************************************************************
                                       0d5a 85 14                  STA        zp_ModifierIndexPrior        Same command as last frame: store (no-op) and return — no scancode sent for a held key
  ReturnNoAction                        0d5c 60                     RTS                                     Return without transmitting: held-key debounce complete
  CheckKBSEHandshake                    0d5d aa                     TAX                                     Save command in X
                                       0d5e a5 81                  LDA        hw_PortB                     Read PortB: check _KBSE handshake
                                       0d60 29 04                  AND        #0x4                         Isolate _KBSE (PB2)
                                       0d62 f0 f8                  BEQ        ReturnNoAction               Host not ready: return
                                       0d64 8a                     TXA                                     Restore command
                                       0d65 85 14                  STA        zp_ModifierIndexPrior        Record as current repeat state
                                       0d67 a9 01                  LDA        #0x1                         A = 1: key-down for numpad
                                       0d69 4c 90 0e               JMP        f_ProcessNumbPad             Tail-call f_ProcessNumbPad
                             -- Flow Override: CALL_RETURN (CALL_TERMINATOR)
                             ****************************************************************************************************************************************************************************
                             * f_ProcessJoystick (0x0D6C)                                                                                                                                               *
                             *                                                                                                                                                                          *
                             * Purpose: Handle IR joystick (IRHeaderNibble=1). Encode buttons into PortC                                                                                                *
                             * upper nibble, merge direction bits[5:2] into lower nibble. Single PortC                                                                                                  *
                             * write (no quadrature loop).                                                                                                                                              *
                             *                                                                                                                                                                          *
                             * Direction (PortC[3:0], active-low):                                                                                                                                      *
                             *   Up:0x7E  Down:0x7D  Left:0x7B  Right:0x77                                                                                                                              *
                             * portD/portB always unchanged on joystick path.                                                                                                                           *
                             ****************************************************************************************************************************************************************************
                             undefined f_ProcessJoystick()
             undefined         <UNASSIGNED>   <RETURN>
                             f_ProcessJoystick (0x0D6B) — port output summary (fuzz-verified across all 256 joystick commands):
                               portC — sole output; encodes both direction and button state (active-low):
                                 bits[6:4]: button  0x7=none 0x6=Button A 0x5=Button B 0x4=A+B
                                 bits[3:0]: direction (active-low) bit3=up bit2=down bit1=left bit0=right
                                 64 unique portC states (16 direction × 4 button combinations)
                                 Each state appears exactly 4 times (MI bits[7:6] are not decoded by this path)
                               portD — always 0xFF; joystick path never writes mouse port
                               portB — always 0x0F; no CPCP output on joystick path
                               No keyboard serial output on this path
  f_ProcessJoystick                     0d6c a9 0f                  LDA        #0xf                         A = 0x0F: idle button lines
                                       0d6e 85 01                  STA        zp_PortB                     Write idle to PortB shadow
                                       0d70 20 25 0d               JSR        f_PrepareJoyMousePorts       Encode button nibble into PortC upper nibble
                             PeripheralTypeTail: shared exit. IRHeaderNibble=0: mouse quadrature. =1: joystick direction merge. =2: return.
  PeripheralTypeTail                    0d73 a5 0e                  LDA        zp_IRHeaderNibble            Load zp_IRHeaderNibble
                                       0d75 f0 1d                  BEQ        MouseQuadraturePath          0: mouse path -> MouseQuadraturePath
                                       0d77 c9 02                  CMP        #0x2                         Test for 2 (Y-axis/unsupported)
                                       0d79 f0 0c                  BEQ        JoystickButton_Exit          2: return without writing direction
                                       0d7b a5 07                  LDA        zp_IRCommandByte             Load IRCommandByte: bits[5:2] = direction
                                       0d7d 29 3c                  AND        #0x3c                        Isolate bits[5:2]
                                                                                                           0011 1100
                                       0d7f 49 3c                  EOR        #0x3c                        Invert to active-low
                                       0d81 4a                     LSR        A                            Shift to bits[3:0] for PortC alignment
                                       0d82 4a                     LSR        A                            Complete shift into bits[3:0] — now a 4-bit value encoding key or direction
                                       0d83 05 03                  ORA        zp_PortC                     Merge into PortC shadow
                                       0d85 85 03                  STA        zp_PortC                     Write to PortC shadow
  JoystickButton_Exit                   0d87 60                     RTS                                     Return
                             ****************************************************************************************************************************************************************************
                             * f_MediaKeyCPCP (0x0D88)                                                                                                                                                  *
                             *                                                                                                                                                                          *
                             * Purpose: Encode IR media key as CPCP nibble in PortB[7:4] for U62.                                                                                                       *
                             * CPCP = ((IRCommandByte>>2) - 0x0F) << 4. PortB[3:0] forced to 0x0F.                                                                                                      *
                             *                                                                                                                                                                          *
                             * Verified: 1=CD/TV, 2=Genlock, 3=Power, 4=Rew, 5=Play, 6=Stop,                                                                                                            *
                             *   7=FF, 8=VolDown, 9=VolUp. 0xC-0xF undocumented.                                                                                                                        *
                             * Key-up: periodic PortB reset at 0x0876 writes 0x0F (CPCP=0=idle).                                                                                                        *
                             ****************************************************************************************************************************************************************************
                             f_MediaKeyCPCP — CPCP nibble encoding:
                               9 documented commands (CPCP 1–9) map to IR decimals:
                                 1=CD/TV(2)  2=Genlock(34) 3=Power(18)  4=Rewind(50)  5=Play/Pause(10)
                                 6=Stop(42)  7=FF(26)      8=Vol Down(58) 9=Vol Up(6)
                               4 undocumented commands (CPCP 0xC–0xF) from MI>>2 = 0x0B–0x0E:
                                 0xC=dec 52  0xD=dec 12  0xE=dec 44  0xF=dec 28
                                 These reach f_MediaKeyCPCP via negative SBC result — PB4/PB5 cycle 00/01/10/11.
                                 U62 behaviour for CPCP 0xC–0xF is unknown (no U62 documentation available).
                               Key-up: not sent as a CPCP command. The periodic portB reset at 0x0876
                               (~512 IRQs, ~83ms) writes 0x0F to portB — PB7:4=0x0 — which the U62 treats
                               as CPCP=0 (idle), completing the key-up.
  f_MediaKeyCPCP                        0d88 38                     SEC                                     SEC before subtraction
                                       0d89 e9 0f                  SBC        #0xf                         Subtract 0x0F: map to CPCP index 1-9
                                       0d8b 0a                     ASL        A                            ASL x4: shift into bits[7:4]
                                       0d8c 0a                     ASL        A                            (*4)
                                       0d8d 0a                     ASL        A                            (*8)
                                       0d8e 0a                     ASL        A                            (*16) — command index now occupies bits[7:4]
                                       0d8f 09 0f                  ORA        #0xf                         ORA #0x0F: preserve _KBSE and AUS lines
                                       0d91 85 01                  STA        zp_PortB                     Write CPCP to PortB shadow
                                       0d93 60                     RTS                                     Return
                             ****************************************************************************************************************************************************************************
                             * MouseQuadraturePath (0x0D94)                                                                                                                                             *
                             *                                                                                                                                                                          *
                             * Checks bit 1 of zp_IREventFlag to select between single-step and                                                                                                         *
                             * continuous quadrature output. Reached from PeripheralTypeTail when                                                                                                       *
                             * zp_IRHeaderNibble=0 (mouse path).                                                                                                                                        *
                             *                                                                                                                                                                          *
                             * Bit 1 clear: BEQ directly into f_Quadrature (one 4-step pass).                                                                                                           *
                             * Bit 1 set: JSR f_Quadrature then fall through for a second pass.                                                                                                         *
                             ****************************************************************************************************************************************************************************
  MouseQuadraturePath                   0d94 a5 0f                  LDA        zp_IREventFlag               Load IREventFlag for continuous-mode check
                                       0d96 29 02                  AND        #0x2                         Isolate bit 1 (set by repeat handler)
                                       0d98 f0 03                  BEQ        f_Quadrature                 Bit 1 clear: single-step quadrature
                                       0d9a 20 9d 0d               JSR        f_Quadrature                 Continuous: call then fall through for double
                             ****************************************************************************************************************************************************************************
                             * f_Quadrature (0x0D9D)                                                                                                                                                    *
                             *                                                                                                                                                                          *
                             * Purpose: Drive 4 quadrature phase transitions on PortD.                                                                                                                  *
                             * X phase from IRCommandByte bits[3:2], Y from bits[5:4].                                                                                                                  *
                             * XOR with tbl_QuadratureX (0x0DEB) and tbl_QuadratureY (0x0DFB).                                                                                                          *
                             *                                                                                                                                                                          *
                             * Sequences (PortD[3:0] = XB1 YA1 XA1 YB1):                                                                                                                                *
                             *   Up: F->B->A->E->F  Down: F->E->A->B->F                                                                                                                                 *
                             *   Left: F->7->5->D->F  Right: F->D->5->7->F                                                                                                                              *
                             * Each step waits ~217 us (2 IRQ ticks). Total ~868 us.                                                                                                                    *
                             ****************************************************************************************************************************************************************************
                             byte __stdcall f_Quadrature(void)
             byte              A:1            <RETURN>
  f_Quadrature                          0d9d a0 04                  LDY        #0x4                         Y = 4: four steps per call
                                       0d9f a5 07                  LDA        zp_IRCommandByte             Load IRCommandByte for X-axis phase
                                       0da1 4a                     LSR        A                            Shift bits[3:2] to bits[1:0]
                                       0da2 4a                     LSR        A                            Shift right again — X phase now in bits[1:0]
                                       0da3 29 03                  AND        #0x3                         Mask to 2 bits
                                       0da5 0a                     ASL        A                            Scale by 4 for table byte offset
                                       0da6 0a                     ASL        A                            Scale step 2 — X table byte offset ready
                                       0da7 85 26                  STA        zp_ScratchA                  Save X-axis offset in zp_ScratchA
                                       0da9 a5 07                  LDA        zp_IRCommandByte             Reload for Y-axis phase (bits[5:4])
                                       0dab 4a                     LSR        A                            Shift 4 right to bits[1:0]
                                       0dac 4a                     LSR        A                            Step 2
                                       0dad 4a                     LSR        A                            Step 3
                                       0dae 4a                     LSR        A                            Step 4 — Y phase now in bits[1:0]
                                       0daf 29 03                  AND        #0x3                         Mask to 2 bits
                                       0db1 0a                     ASL        A                            Scale by 4 for Y-axis offset
                                       0db2 0a                     ASL        A                            Step 2 — Y table byte offset ready
                                       0db3 85 27                  STA        zp_ScratchB                  Save Y-axis offset in zp_ScratchB
                             Output loop: XOR idle PortD with X and Y phase masks, write to hardware, wait 2 IRQ ticks per step.
  OutputUpdateLoop                      0db5 a5 02                  LDA        zp_PortD                     Load PortD shadow
                                       0db7 09 0f                  ORA        #0xf                         Force quadrature nibble to idle (0xF)
                                       0db9 85 02                  STA        zp_PortD                     Store idle baseline
                                       0dbb a6 26                  LDX        zp_ScratchA                  Load X-axis table offset
                                       0dbd a5 02                  LDA        zp_PortD                     Reload PortD shadow
                                       0dbf 5d eb 0d               EOR        0xdeb,X=>BYTE_0df7           XOR with X-axis transition mask
                                       0dc2 85 02                  STA        zp_PortD                     Write X-axis state
                                       0dc4 e8                     INX                                     Advance X offset to next entry
                                       0dc5 86 26                  STX        zp_ScratchA                  Save updated X offset
                                       0dc7 a6 27                  LDX        zp_ScratchB                  Load Y-axis table offset
                                       0dc9 a5 02                  LDA        zp_PortD                     Reload PortD (has X applied)
                                       0dcb 5d fb 0d               EOR        0xdfb,X=>BYTE_0e07           XOR with Y-axis transition mask
                                       0dce 85 02                  STA        zp_PortD                     Write combined X+Y state
                                       0dd0 e8                     INX                                     Advance Y offset
                                       0dd1 86 27                  STX        zp_ScratchB                  Save updated Y offset
                                       0dd3 a5 02                  LDA        zp_PortD                     Load final combined PortD value
                                       0dd5 85 83                  STA        hw_PortD                     Push to hw_PortD
                                       0dd7 a9 00                  LDA        #0x0                         A = 0: reset IRQ counter
                                       0dd9 85 10                  STA        zp_IRQCount_LSB              Reset tick counter for phase wait
  IRQ_WaitLoop                          0ddb a5 10                  LDA        zp_IRQCount_LSB              Sample tick counter
                                       0ddd c9 02                  CMP        #0x2                         Wait for 2 ticks (~217 us)
                                       0ddf 90 fa                  BCC        IRQ_WaitLoop                 Spin until elapsed
                                       0de1 88                     DEY                                     Decrement step counter
                                       0de2 d0 d1                  BNE        OutputUpdateLoop             More steps: loop back
                                       0de4 a5 02                  LDA        zp_PortD                     Load PortD after final step
                                       0de6 09 0f                  ORA        #0xf                         Force quadrature back to idle
                                       0de8 85 02                  STA        zp_PortD                     Store idle-restored state
                                       0dea 60                     RTS                                     Return: 4 steps delivered
                             X-axis quadrature EOR table (16 bytes). XOR with idle 0x0F to produce pin pattern.
                                       0deb 00                     db         0h                           Quadrature table row 1 start
                                       0dec 00                     db         0h                           Quadrature state 0→0 (no change)
                                       0ded 00                     db         0h                           Quadrature state 0→1 (CW)
                                       0dee 00                     db         0h                           Quadrature state 0→2 (CCW)
                                       0def 04                     db         4h                           Quadrature state 0→3 (error)
                                       0df0 05                     db         5h                           Quadrature state 1→0 (CCW)
                                       0df1 01                     db         1h                           Quadrature state 1→1 (no change)
                                       0df2 00                     db         0h                           Quadrature state 1→2 (error)
                                       0df3 01                     db         1h                           Quadrature state 1→3 (CW)
                                       0df4 05                     db         5h                           Quadrature state 2→0 (CW)
                                       0df5 04                     db         4h                           Quadrature state 2→1 (error)
                                       0df6 00                     db         0h                           Quadrature state 2→2 (no change)
  BYTE_0df7                             0df7 00                     db         0h                           Quadrature state 2→3 (CCW)
  BYTE_0df8                             0df8 00                     db         0h                           Quadrature state 3→0 (error)
                                       0df9 00                     db         0h                           Quadrature state 3→1 (CCW)
                                       0dfa 00                     db         0h                           Quadrature state 3→2 (CW)
                             Y-axis quadrature EOR table (16 bytes). Drives YA1/YB1.
                                       0dfb 00                     db         0h                           Quadrature table row 2 start
                                       0dfc 00                     db         0h                           Alt quadrature mapping 0→0
                                       0dfd 00                     db         0h                           Alt quadrature mapping 0→1
                                       0dfe 00                     db         0h                           Alt quadrature mapping 0→2
                                       0dff 08                     db         8h                           Alt quadrature mapping 0→3
                                       0e00 0a                     db         Ah                           Alt quadrature mapping 1→0
                                       0e01 02                     db         2h                           Alt quadrature mapping 1→1
                                       0e02 00                     db         0h                           Alt quadrature mapping 1→2
                                       0e03 02                     db         2h                           Alt quadrature mapping 1→3
                                       0e04 0a                     db         Ah                           Alt quadrature mapping 2→0
                                       0e05 08                     db         8h                           Alt quadrature mapping 2→1
                                       0e06 00                     db         0h                           Alt quadrature mapping 2→2
  BYTE_0e07                             0e07 00                     db         0h                           Alt quadrature mapping 2→3
  BYTE_0e08                             0e08 00                     db         0h                           Alt quadrature mapping 3→0
                                       0e09 00                     db         0h                           Alt quadrature mapping 3→1
                                       0e0a 00                     db         0h                           Alt quadrature mapping 3→2
                             ****************************************************************************************************************************************************************************
                             * f_WriteAllPorts (0x0E0B)                                                                                                                                                 *
                             *                                                                                                                                                                          *
                             * Purpose: Flush port shadows to hardware. Guarded: skips if IREventFlag                                                                                                   *
                             * bit 0 or IRInputReady is non-zero. Write order: A->B->D->C.                                                                                                              *
                             ****************************************************************************************************************************************************************************
                             byte __stdcall f_WriteAllPorts(void)
             byte              A:1            <RETURN>
  f_WriteAllPorts                       0e0b a5 0f                  LDA        zp_IREventFlag               Load IREventFlag: check bit 0
                                       0e0d 29 01                  AND        #0x1                         Isolate IR-busy bit
                                       0e0f 05 16                  ORA        zp_IRInputReady              Combine with data-pending flag
                                       0e11 d0 11                  BNE        SkipPortUpdate:              Either set: skip all writes
                                       0e13 a5 00                  LDA        zp_PortA                     Load PortA shadow
                                       0e15 85 80                  STA        hw_PortA                     Write to hw_PortA
                                       0e17 a5 01                  LDA        zp_PortB                     Load PortB shadow
                                       0e19 85 81                  STA        hw_PortB                     Write to hw_PortB
                                       0e1b a5 02                  LDA        zp_PortD                     Load PortD shadow
                                       0e1d 85 83                  STA        hw_PortD                     Write to hw_PortD
                                       0e1f a5 03                  LDA        zp_PortC                     Load PortC shadow
                                       0e21 85 82                  STA        hw_PortC                     Write to hw_PortC
                                       0e23 60                     RTS                                     Return: all ports updated
  SkipPortUpdate:                       0e24 60                     RTS                                     Skip path: return without writing
                             ****************************************************************************************************************************************************************************
                             * f_ProcessKeyboard (0x0E25)                                                                                                                                               *
                             *                                                                                                                                                                          *
                             * Purpose: Check for keyboard events and route. Media keys get hardcoded                                                                                                   *
                             * Space (0x40) injected. Wired keyboard timing validated against IRQ counter.                                                                                              *
                             * Ends by clearing IREventFlag and StatusCheck for next cycle.                                                                                                             *
                             *                                                                                                                                                                          *
                             * BIT trick at 0x0E84: hides LDA #0x01 for keyboard-active path.                                                                                                           *
                             ****************************************************************************************************************************************************************************
                             undefined __stdcall f_ProcessKeyboard(void)
             undefined         <UNASSIGNED>   <RETURN>
  f_ProcessKeyboard                     0e25 a5 0f                  LDA        zp_IREventFlag               Guard: same as f_WriteAllPorts
                                       0e27 29 01                  AND        #0x1                         Isolate error bit
                                       0e29 05 16                  ORA        zp_IRInputReady              Combine with IR pending flag
                                       0e2b d0 55                  BNE        FinalCleanup                 IR active: skip keyboard this cycle
                                       0e2d a9 00                  LDA        #0x0                         A = 0: reset counters
                                       0e2f 85 10                  STA        zp_IRQCount_LSB              Reset IRQ counter LSB
                                       0e31 85 11                  STA        zp_IRQCount_MSB              Reset IRQ counter MSB
                                       0e33 a5 00                  LDA        zp_PortA                     Load PortA shadow for idle assertion
                                       0e35 09 09                  ORA        #0x9                         Force PA0/PA3 high during keyboard polling
                                       0e37 85 80                  STA        hw_PortA                     Write to hw_PortA
                                       0e39 a5 13                  LDA        zp_Remote_NP_Media           Check media key pending (bit 1)
                                       0e3b 29 02                  AND        #0x2                         Isolate media flag
                                       0e3d f0 08                  BEQ        Process_FullKeyboard:        No media: skip Space injection
                             ****************************************************************************************************************************************************************************
                             * Media space-injection path inside f_ProcessKeyboard.                                                                                                                     *
                             * Reached when zp_Remote_NP_Media ($0013) bit 1 is set — but note: NO firmware path ever sets bit 1.                                                                       *
                             * All three writers of $0013 store either 0x00 (clear) or 0x01 (numpad press flag):                                                                                        *
                             *   $08A4: STA 0 (periodic clear)                                                                                                                                          *
                             *   $0E72: STA 0 (after media key dispatch)                                                                                                                                *
                             *   $0E90: STA A where A is 0 or 1 (numpad press/release flag)                                                                                                             *
                             * Bit 1 (value $02) is never written. The BEQ at $0E3D therefore always branches to $0E47                                                                                  *
                             * in normal execution. This code block ($0E3F-$0E45) is vestigial — likely a relic from an                                                                                 *
                             * early firmware revision that had a separate media key pending flag before CPCP routing was                                                                               *
                             * implemented.                                                                                                                                                             *
                             *                                                                                                                                                                          *
                             * If somehow reached: injects scancode $40 (Space) into zp_ScratchA and type indicator                                                                                     *
                             * $06 into zp_ScratchB. These values are then used by the timing check at $0E47-$0E56                                                                                      *
                             * and the dispatch at $0E6D (JSR f_ProcessKeyboardEvent).                                                                                                                  *
                             ****************************************************************************************************************************************************************************
                                       0e3f a9 40                  LDA        #0x40                        Inject Space (scancode $40) as the media key proxy to send to the Amiga
                                       0e41 85 26                  STA        zp_ScratchA                  Stage Space in zp_ScratchA — used as timing reference and dispatch input
                                       0e43 a9 06                  LDA        #0x6                         A = $06: media type indicator stored in zp_ScratchB
                                       0e45 85 27                  STA        zp_ScratchB                  Stage type indicator in zp_ScratchB — read at $0E54 in the timing check loop
                             ****************************************************************************************************************************************************************************
                             * Keyboard-lines idle check and IRQ-based debounce loop.                                                                                                                   *
                             * PA0 (IRDT) or PA3 (PRDT) — whichever is the active protocol line — must be LOW (marking) for this loop to spin.                                                         *
                             * If the line is idle (PA0=1 after AND mask): BNE diverts to BIT trick at $0E84 (FinalPortUpdate path); $0E58 is never reached.                                            *
                             * If the line is still marking: the 16-bit IRQ counter (zp_IRQCount_LSB:MSB) is compared against the timing reference in zp_ScratchA:ScratchB. The loop re-samples unti... *
                             ****************************************************************************************************************************************************************************
                             Keyboard-lines idle check and IRQ-based debounce loop.
                             PA0 (IRDT) or PA3 (PRDT) — whichever is the active protocol line — must be LOW (marking) for this loop to spin.
                             If the line is idle (PA0=1 after AND mask): BNE diverts to BIT trick at $0E84 (FinalPortUpdate path); $0E58 is never reached.
                             If the line is still marking: 
                             The 16-bit IRQ counter (zp_IRQCount_LSB:MSB) is compared against the timing reference in zp_ScratchA:ScratchB. 
                             The loop re-samples until the counter catches up
  Process_FullKeyboard:                 0e47 a5 80                  LDA        hw_PortA                     Sample PortA: is the protocol line still active (marking)?
                                       0e49 25 06                  AND        zp_ProtocolMask              Mask to active protocol line (0x01=IR/PA0  0x06=wired kbd/PA1+PA2  0x08=PRDT/PA3)
                                       0e4b d0 38                  BNE        FinalPortUpdate+1            Line idle (carry set by BIT trick on idle path): skip to FinalPortUpdate. Line still active: fall through to timing check
                                       0e4d a5 10                  LDA        zp_IRQCount_LSB              Load IRQ tick counter LSB as elapsed-time reference
                                       0e4f 38                     SEC                                     SEC before 16-bit subtraction
                                       0e50 e5 26                  SBC        zp_ScratchA                  Subtract timing reference LSB (zp_ScratchA): set by media path ($0E41) or 0 otherwise
                                       0e52 a5 11                  LDA        zp_IRQCount_MSB              Load IRQ tick counter MSB
                                       0e54 e5 27                  SBC        zp_ScratchB                  Subtract timing reference MSB (zp_ScratchB): set by media path ($0E43=0x06) or 0 otherwise
                                       0e56 90 ef                  BCC        Process_FullKeyboard:        Carry clear = counter has not yet reached reference: re-sample PortA and subtract again
                             Timing window elapsed (or protocol line confirmed active).
                             All output ports are reset to their idle/inactive state before dispatching any pending remote event. 
                             PortB carries the CPCP nibble for U62 and the _KBSE line; resetting it to 0x0F clears any live CPCP command (key-up).
                             PortC and PortD carry mouse and joystick quadrature; resetting them to 0xFF asserts all lines inactive for the Amiga.
                                       0e58 a9 0f                  LDA        #0xf                         A = 0x0F: idle PortB value (_KBSE high  AUS=1  CPCP=0)
                                       0e5a 85 81                  STA        hw_PortB                     Reset hw_PortB: clears any live CPCP key command and restores _KBSE and AUS lines
                                       0e5c a9 ff                  LDA        #0xff                        A = 0xFF: all port lines inactive
                                       0e5e 85 83                  STA        hw_PortD                     Reset hw_PortD: de-assert all mouse quadrature and button outputs
                                       0e60 85 82                  STA        hw_PortC                     Reset hw_PortC: de-assert all joystick quadrature and button outputs
                             Dispatch any pending remote event. Priority: numpad (bit 0) is tested first via LSR; media (bit 1) checked only when numpad is absent. 
                             Both paths converge at FinalReset ($0E7C) to clear state. If neither flag is set  BEQ skips to FinalCleanup ($0E82).
                                       0e62 a5 13                  LDA        zp_Remote_NP_Media           Reload zp_Remote_NP_Media to check for pending remote events
                                       0e64 4a                     LSR        A                            Shift bit 0 (numpad pending) into carry
                                       0e65 b0 10                  BCS        Process_NP_Branch            Numpad event pending: branch to handler at $0E77
                                       0e67 a5 13                  LDA        zp_Remote_NP_Media           Reload zp_Remote_NP_Media for media-key check
                                       0e69 29 02                  AND        #0x2                         Isolate bit 1: media key pending
                                       0e6b f0 15                  BEQ        FinalCleanup                 Neither flag set: no event to dispatch; fall through to FinalCleanup
                                       0e6d 20 0e 0f               JSR        f_ProcessKeyboardEvent       Media key pending: call f_ProcessKeyboardEvent to transmit the scancode via PA1/PA2
                                       0e70 a9 00                  LDA        #0x0                         A = 0: clear remote flags after media dispatch
                                       0e72 85 13                  STA        zp_Remote_NP_Media           Clear zp_Remote_NP_Media: media event consumed
                                       0e74 4c 7c 0e               JMP        FinalReset                   Skip numpad handler; go directly to state reset
  Process_NP_Branch                     0e77 a9 00                  LDA        #0x0                         A = 0: press flag for numpad key (0=press  passed to f_ProcessNumbPad)
                                       0e79 20 90 0e               JSR        f_ProcessNumbPad             Send numpad scancode via f_ProcessNumbPad (table lookup + f_SendKeyboardSerial)
                             State reset after event dispatch. Clears the prior-state registers so the next iteration treats every key as a fresh event rather than a repeat.
  FinalReset                            0e7c a9 00                  LDA        #0x0                         A = 0: clear prior-state registers
                                       0e7e 85 14                  STA        zp_ModifierIndexPrior        Clear zp_ModifierIndexPrior: next modifier frame always detected as changed
                                       0e80 85 15                  STA        zp_KeyboardIndexPrior        Clear zp_KeyboardIndexPrior: next key frame always detected as changed
  FinalCleanup                          0e82 a9 00                  LDA        #0x0                         A = 0: cleanup
  FinalPortUpdate+1                     0e84 2c a9 01               BIT        DAT_01a9                     BIT trick: hides LDA #0x01 from 0x0E4B path
  FinalPortUpdate
                                       0e87 85 12                  STA        zp_KB_Temp                   A->zp_KB_Temp: 1=enable repeat test, 0=disable
                                       0e89 a9 00                  LDA        #0x0                         A = 0: clear cycle flags
                                       0e8b 85 0f                  STA        zp_IREventFlag               Clear IREventFlag: cycle complete
                                       0e8d 85 22                  STA        zp_StatusCheck               Clear StatusCheck: allow next acquisition
                                       0e8f 60                     RTS                                     Return to main loop
                             ****************************************************************************************************************************************************************************
                             * f_ProcessNumbPad (0x0E90)                                                                                                                                                *
                             *                                                                                                                                                                          *
                             * Purpose: Convert remote numpad button to Amiga scancode and transmit.                                                                                                    *
                             * Algorithm: store flag, IRCommandByte>>2, subtract 0x20, table lookup,                                                                                                    *
                             * ASL, merge press/release into bit 0, transmit.                                                                                                                           *
                             *                                                                                                                                                                          *
                             * Table: tbl_NumPadScancodes (0x0F02), 12 entries.                                                                                                                         *
                             * Indices >11 produce OOB reads into instruction bytes.                                                                                                                    *
                             ****************************************************************************************************************************************************************************
                             byte __stdcall f_ProcessNumbPad(void)
             byte              A:1            <RETURN>
  f_ProcessNumbPad                      0e90 85 13                  STA        zp_Remote_NP_Media           Store press/release flag (0=press, 1=release)
                                       0e92 a5 07                  LDA        zp_IRCommandByte             Load button code from IR data
                                       0e94 4a                     LSR        A                            Shift right twice (divide by 4)
                                       0e95 4a                     LSR        A                            Shift right again (÷4 total)
                                       0e96 38                     SEC                                     SEC for subtraction
                                       0e97 e9 20                  SBC        #0x20                        Subtract 0x20: create table index (0-11)
                                       0e99 aa                     TAX                                     Transfer index to X
                                       0e9a bd 02 0f               LDA        0xf02,X=>LAB_0f20+1          Load scancode from table[X]
                                       0e9d 0a                     ASL        A                            ASL: scancode x2 for press/release bit space
                                       0e9e 85 26                  STA        zp_ScratchA                  Store doubled scancode in zp_ScratchA
                                       0ea0 a5 13                  LDA        zp_Remote_NP_Media           Load press/release flag
                                       0ea2 29 01                  AND        #0x1                         Isolate bit 0
                                       0ea4 49 01                  EOR        #0x1                         Invert (Amiga convention: 0=release, 1=press)
                                       0ea6 05 26                  ORA        zp_ScratchA                  Merge into bit 0
                                       0ea8 85 26                  STA        zp_ScratchA                  Store final scancode in zp_ScratchA
                                       0eaa 4c b4 0e               JMP        f_SendKeyboardSerial::Send   Tail-call f_SendKeyboardSerial
                             ****************************************************************************************************************************************************************************
                             * f_SendKeyboardSerial ($0EAD-$0EEC).                                                                                                                                      *
                             * Purpose: Transmit one 8-bit Amiga scancode to the CIA over the PA1(_KBDATA)/PA2(_KBCLOCK) serial lines.                                                                  *
                             *                                                                                                                                                                          *
                             * Inputs: A = scancode byte (caller-supplied).                                                                                                                             *
                             *   bit 7 = 0: key press. bit 7 = 1: key release.                                                                                                                          *
                             *                                                                                                                                                                          *
                             * Amiga keyboard serial protocol:                                                                                                                                          *
                             *   - MSB-first transmission                                                                                                                                               *
                             *   - Clock generated on PA2 (_KBCLOCK). CIA samples KDAT on the falling edge.                                                                                             *
                             *   - Data inverted: 0 on PA1 = send 1; 1 on PA1 = send 0.                                                                                                                 *
                             *   - Bit order on wire: 6-5-4-3-2-1-0-7 (up/down bit last per Amiga hardware spec).                                                                                       *
                             *   - CIA acknowledges by pulling _KBSE (PB2) low for ~20 µs.                                                                                                              *
                             *                                                                                                                                                                          *
                             * Entry points:                                                                                                                                                            *
                             *   $0EAD: normal entry (A = raw scancode from caller)                                                                                                                     *
                             *   $0EB4: Send_Key (A = prescrambled scancode; used by JMP tail-calls from f_ProcessNumbPad)                                                                              *
                             *                                                                                                                                                                          *
                             * RC4 coverage:                                                                                                                                                            *
                             *   Press (bit 7=0): $0EAD (ASL)  $0EAE (BCC taken)  $0EB2 (STA).                                                                                                          *
                             *   Release (bit 7=1): $0EAD (ASL)  $0EAE (BCC not taken)  $0EB0 (ORA #$01)  $0EB2 (STA).                                                                                  *
                             *   Both paths are exercised by the press/release pair in f_ProcessFrontPanel.                                                                                             *
                             ****************************************************************************************************************************************************************************
                             byte __stdcall f_SendKeyboardSerial(char param_1)
             byte              A:1            <RETURN>
             char              A:1            param_1
  f_SendKeyboardSerial                  0ead 0a                     ASL        param_1                      ASL A: shift scancode left; bit 7 exits into carry (1=release  0=press) and the remaining 7 bits shift up
                                       0eae 90 02                  BCC        StoreScancode                Carry clear = press (bit 7 was 0): jump past the release-bit insertion to store
                                       0eb0 09 01                  ORA        #0x1                         Release path: carry was set (bit 7=1); set LSB to mark this as a key-up event in the Amiga protocol
  StoreScancode                         0eb2 85 26                  STA        zp_ScratchA                  Store the transformed scancode for the 8-bit shift loop that follows
  Send_Key                              0eb4 78                     SEI                                     SEI: critical section for serial TX
  WaitFor_KBSE                          0eb5 a5 81                  LDA        hw_PortB                     Read PortB for _KBSE check
                                       0eb7 29 04                  AND        #0x4                         Mask _KBSE (PB2)
                                       0eb9 f0 fa                  BEQ        WaitFor_KBSE                 Spin until CIA ready
                                       0ebb a5 81                  LDA        hw_PortB                     Read PortB
                                       0ebd 29 fb                  AND        #11111011b                   Clear _KBCLOCK (PB2 low)
                                       0ebf 85 81                  STA        hw_PortB                     Write to hw_PortB
                                       0ec1 a5 00                  LDA        zp_PortA                     Load PortA shadow for data setup
                                       0ec3 09 06                  ORA        #00000110b                   Set PA1/PA2 high (idle)
                                       0ec5 85 00                  STA        zp_PortA                     Update shadow
                                       0ec7 85 80                  STA        hw_PortA                     Write to hw_PortA
                                       0ec9 a2 08                  LDX        #0x8                         X = 8: transmit 8 bits
  BitLoop_Start                         0ecb 06 26                  ASL        zp_ScratchA                  Shift next bit out of zp_ScratchA (MSB first)
                                       0ecd b0 06                  BCS        Branch_ClearKBDATA           Bit=1: clear _KBDATA (inverted protocol)
                                       0ecf a5 80                  LDA        hw_PortA                     Read PortA for bit 0 path
                                       0ed1 09 02                  ORA        #00000010b                   Set _KBDATA high = send 0 (inverted)
                                       0ed3 d0 04                  BNE        Continue_Bit                 Branch to store (always taken)
  Branch_ClearKBDATA                    0ed5 a5 80                  LDA        hw_PortA                     Read PortA for bit 1 path
                                       0ed7 29 fd                  AND        #11111101b                   Clear _KBDATA low = send 1 (inverted)
  Continue_Bit                          0ed9 85 80                  STA        hw_PortA                     Write bit to _KBDATA line
                                       0edb 20 ed 0e               JSR        f_GenerateClock              Generate _KBCLOCK pulse (~68.7 us)
                                       0ede ca                     DEX                                     Decrement bit counter
                                       0edf d0 ea                  BNE        BitLoop_Start                Loop until 8 bits sent
                                       0ee1 a5 00                  LDA        zp_PortA                     Restore PortA from shadow
                                       0ee3 85 80                  STA        hw_PortA                     Write to hw_PortA
                                       0ee5 a5 81                  LDA        hw_PortB                     Read PortB
                                       0ee7 09 04                  ORA        #0x4                         Set _KBSE high (re-enable)
                                       0ee9 85 81                  STA        hw_PortB                     Write to hw_PortB
                                       0eeb 58                     CLI                                     CLI: end critical section
                                       0eec 60                     RTS                                     Return
                             ****************************************************************************************************************************************************************************
                             * f_GenerateClock (0x0EED)                                                                                                                                                 *
                             *                                                                                                                                                                          *
                             * Purpose: One _KBCLOCK pulse on PA2. LOW ~33 us, HIGH ~35 us, total ~68.7 us.                                                                                             *
                             * CIA samples data on falling edge. Called once per bit.                                                                                                                   *
                             ****************************************************************************************************************************************************************************
                             byte __stdcall f_GenerateClock(void)
             byte              A:1            <RETURN>
  f_GenerateClock                       0eed a0 08                  LDY        #0x8                         Y = 8: pre-low delay count
  OffLoop                               0eef 88                     DEY                                     Decrement delay
                                       0ef0 d0 fd                  BNE        OffLoop                      Loop until complete
                                       0ef2 a5 80                  LDA        hw_PortA                     Read PortA
                                       0ef4 29 fb                  AND        #11111011b                   Clear PA2: drive _KBCLOCK low
                                       0ef6 85 80                  STA        hw_PortA                     Drive _KBCLOCK low (falling edge) — CIA latches KDAT here per Amiga keyboard spec (data set up ~20 us before clock falls)
                                       0ef8 a0 08                  LDY        #0x8                         Y = 8: clock-low delay
  OnLoop                                0efa 88                     DEY                                     Decrement
                                       0efb d0 fd                  BNE        OnLoop                       Loop
                                       0efd 09 04                  ORA        #00000100b                   Set PA2: release _KBCLOCK high
                                       0eff 85 80                  STA        hw_PortA                     Release _KBCLOCK high — CIA already latched KDAT on the falling edge at 0x0EF6; this rising edge only restores the clock line
                                       0f01 60                     RTS                                     Return
                             Numpad scancode table (12 entries). 0=KP1, 1=KP2, 2=KP3, 3=Esc, 4=KP4, 5=KP5, 6=KP6, 7=KP0, 8=KP7, 9=KP8, 10=KP9, 11=KP Enter.
  tbl_NumPadScancodes                   0f02 1d                     db         1Dh                          Number Pad 1
                                       0f03 1e                     db         1Eh                          Number Pad 2
                                       0f04 1f                     db         1Fh                          Number Pad 3
                                       0f05 45                     db         45h                          Number Pad Escape
                                       0f06 2d                     db         2Dh                          Number Pad 4
                                       0f07 2e                     db         2Eh                          Number Pad 5
                                       0f08 2f                     db         2Fh                          Number Pad 6
                                       0f09 0f                     db         Fh                           Number Pad 0
                                       0f0a 3d                     db         3Dh                          Number Pad 7
                                       0f0b 3e                     db         3Eh                          Number Pad 8
                                       0f0c 3f                     db         3Fh                          Number Pad 9
                                       0f0d 43                     db         43h                          Number Pad Enter
                             ****************************************************************************************************************************************************************************
                             * f_ProcessKeyboardEvent (0x0F0E)                                                                                                                                          *
                             *                                                                                                                                                                          *
                             * Compares current qualifier bitmask and keycode index against prior frame values.                                                                                         *
                             * Transmits exactly one scancode per call if either has changed.                                                                                                           *
                             * Priority: qualifier change is handled before keycode change.                                                                                                             *
                             * Note: modifier in variable names (zp_ModifierIndexPrior etc.) reflects an                                                                                                *
                             * earlier annotation error — the Amiga canonical term is qualifier key.                                                                                                    *
                             ****************************************************************************************************************************************************************************
                             byte __stdcall f_ProcessKeyboardEvent(void)
             byte              A:1            <RETURN>
  f_ProcessKeyboardEvent                0f0e a5 07                  LDA        zp_IRCommandByte             Load current modifier bitmask
                                       0f10 c5 14                  CMP        zp_ModifierIndexPrior        Compare with prior
                                       0f12 d0 0f                  BNE        SendModifierValue            Modifier changed: handle it before checking key (modifier has priority this call)
                                       0f14 a5 08                  LDA        zp_KeyboardIndex             Unchanged: check keyboard index
                                       0f16 c5 15                  CMP        zp_KeyboardIndexPrior        Compare with prior
                                       0f18 d0 40                  BNE        ProcessKeyboardScancode      Key index also unchanged: both unchanged this frame — commit priors and return
                                       0f1a a5 07                  LDA        zp_IRCommandByte             No change: refresh prior values
                                       0f1c 85 14                  STA        zp_ModifierIndexPrior        Commit modifier as prior
                                       0f1e a5 08                  LDA        zp_KeyboardIndex             Load keyboard index
  LAB_0f20+1                            0f20 85 15                  STA        zp_KeyboardIndexPrior        Commit key as prior
                                       0f22 60                     RTS                                     Nothing to transmit — return to main loop
                             ****************************************************************************************************************************************************************************
                             * SendModifierValue (0x0F23)                                                                                                                                               *
                             *                                                                                                                                                                          *
                             * Modifier bitmask has changed. If non-zero, find the lowest set bit,                                                                                                      *
                             * look up its Amiga scancode in tbl_ModifierKeys[Y], and transmit as                                                                                                       *
                             * a key-press event. If zero, branch to Modifier_Default to send                                                                                                           *
                             * release events for each previously-held modifier.                                                                                                                        *
                             ****************************************************************************************************************************************************************************
                             Modifier changed. Non-zero: scan bits LSB-first and transmit press for lowest set bit. Zero: release all.
  SendModifierValue                     0f23 a5 07                  LDA        zp_IRCommandByte             Reload modifier bitmask
                                       0f25 f0 1f                  BEQ        Modifier_Default             Modifier = 0x00: all released — branch to send release events from prior bitmask
                                       0f27 85 14                  STA        zp_ModifierIndexPrior        Record new modifier as prior
                                       0f29 a9 00                  LDA        #0x0                         A = 0: press flag
                                       0f2b 85 27                  STA        zp_ScratchB                  Set direction = press
                                       0f2d a5 14                  LDA        zp_ModifierIndexPrior        Reload for bit-scan
  IterateModifiers                      0f2f a0 00                  LDY        #0x0                         Y = 0: start from R.Shift
                                       0f31 a2 08                  LDX        #0x8                         X = 8: test all 8 bits
  NextModifier                          0f33 4a                     LSR        A                            Shift next modifier bit into carry — carry set = this modifier active
                                       0f34 b0 05                  BCS        SendModifier                 Carry set: found lowest-active modifier bit — Y = table index for this modifier
                                       0f36 c8                     INY                                     Not set: advance table index
                                       0f37 ca                     DEX                                     Decrement bits remaining
                                       0f38 d0 f9                  BNE        NextModifier                 Loop until all tested
                                       0f3a 60                     RTS                                     All tested: return (shouldn't reach if !=0)
  SendModifier                          0f3b b9 52 0f               LDA        tbl_ModifierKeys,Y           Load pre-shifted scancode from tbl_ModifierKeys[Y] — ASL at 0x0F3E makes the wire byte
                                       0f3e 0a                     ASL        A                            ASL: scancode x2 for press/release bit
                                       0f3f 05 27                  ORA        zp_ScratchB                  Merge direction flag
                                       0f41 85 26                  STA        zp_ScratchA                  Store wire byte in zp_ScratchA
                                       0f43 4c b4 0e               JMP        f_SendKeyboardSerial::Send   Tail-call to f_SendKeyboardSerial — execution does not return here
                             All modifiers released (modifier byte = 0x00). Send a release event for each bit set in the prior bitmask then clear the prior.
  Modifier_Default                      0f46 a9 01                  LDA        #0x1                         Direction = 1 (release)
                                       0f48 85 27                  STA        zp_ScratchB                  Store release flag
                                       0f4a a5 14                  LDA        zp_ModifierIndexPrior        Load prior bitmask — these are the modifiers that were pressed and now need releasing
                                       0f4c a2 00                  LDX        #0x0                         X = 0: clear prior
                                       0f4e 86 14                  STX        zp_ModifierIndexPrior        Clear ModifierIndexPrior
                                       0f50 f0 dd                  BEQ        IterateModifiers             Branch always (A=0 after STX cleared the prior) — iterate over bits to release each
                             ****************************************************************************************************************************************************************************
                             * tbl_QualifierKeys (0x0F52) — RENAME CANDIDATE from tbl_ModifierKeys                                                                                                      *
                             *                                                                                                                                                                          *
                             * Pre-shifted Amiga scancodes for the eight qualifier keys.                                                                                                                *
                             * ASL at 0x0F3E produces the final wire byte.                                                                                                                              *
                             * Order matches IR bitmask LSB-first scan:                                                                                                                                 *
                             * Y=0:R.Shift(0x61) Y=1:R.Alt(0x65) Y=2:R.Amiga(0x67) Y=3:Ctrl(0x63)                                                                                                       *
                             * Y=4:L.Shift(0x60) Y=5:L.Alt(0x64) Y=6:L.Amiga(0x66) Y=7:CapsLock(0x62)                                                                                                   *
                             * Reboot combo: bits 4+5+6 (R.Amiga + L.Amiga + Ctrl = 0x70).                                                                                                              *
                             ****************************************************************************************************************************************************************************
                             Modifier key table (8 entries). 
                             Pre-shift raw scancodes; 
                             ASL at 0x0F3E creates wire byte. 
                             Y=0:R.Shift(0x61) Y=1:R.Alt(0x65) Y=2:R.Amiga(0x67) Y=3:Ctrl(0x63) Y=4:L.Shift(0x60) Y=5:L.Alt(0x64) Y=6:L.Amiga(0x66) Y=7:CapsLock(0x62). 
                             Reboot combo: bits 4+5+6 (R.Amiga+L.Amiga+Ctrl).
  tbl_ModifierKeys                      0f52 61                     db         61h                          Y=0: R.Shift — wire press=0xC2, release=0xC3 (IR bit0; single-key frame 1025)
                                       0f53 65                     db         65h                          Y=1: R.Alt   — wire press=0xCA, release=0xCB (IR bit2; single-key frame 1028)
                                       0f54 67                     db         67h                          Y=2: R.Amiga — wire press=0xCE, release=0xCF (IR bit4; single-key frame 1040)
                                       0f55 63                     db         63h                          Y=3: Control — wire press=0xC6, release=0xC7 (IR bit6; single-key frame 1088)
                                       0f56 60                     db         60h                          Y=4: L.Shift — wire press=0xC0, release=0xC1 (IR bit1; single-key frame 1026)
                                       0f57 64                     db         64h                          Y=5: L.Alt   — wire press=0xC8, release=0xC9 (IR bit3; single-key frame 1032)
                                       0f58 66                     db         66h                          Y=6: L.Amiga — wire press=0xCC, release=0xCD (IR bit5; single-key frame 1056)
                                       0f59 62                     db         62h                          Y=7: Caps Lock — wire press=0xC4, release=0xC5 (IR bit7; single-key frame 1152)
                             ****************************************************************************************************************************************************************************
                             * f_ProcessKeyboardScancode (0x0F5A)                                                                                                                                       *
                             *                                                                                                                                                                          *
                             * Converts a decoded IR keyboard keycode index to an Amiga scancode and                                                                                                    *
                             * transmits it to the CIA over PA1 (_KBDATA) / PA2 (_KBCLOCK).                                                                                                             *
                             * Source: IR 40-bit frame decode via f_Decode40BitIRKeyboard.                                                                                                              *
                             * Not used for the wired CD1221 keyboard — that device talks directly to the CIA.                                                                                          *
                             ****************************************************************************************************************************************************************************
                             Key index changed. Non-zero: transmit press for new key. Zero: transmit release for prior key.
  ProcessKeyboardScancode               0f5a a5 08                  LDA        zp_KeyboardIndex             Loads IR keyboard table index (zp_KeyboardIndex). Non-zero = key pressed via IR; zero = release prior key
                                       0f5c f0 12                  BEQ        HandleKeyRelease             Index = 0x00: no key pressed this frame — send release for prior key
                             Key press path - new key detected
                                       0f5e 85 15                  STA        zp_KeyboardIndexPrior        Store as previous
                                       0f60 a8                     TAY                                     Y = index for table lookup
                                       0f61 a9 00                  LDA        #0x0                         A = 0: press flag
                                       0f63 85 27                  STA        zp_ScratchB                  Set direction = press
                             Lookup scancode and transmit
  TransmitScancode                      0f65 b9 7c 0f               LDA        0xf7c,Y=>DAT_107b            Look up Amiga scancode from tbl_KeyboardScancodes[Y] — IR keyboard keycode index to Amiga scancode
                                       0f68 0a                     ASL        A                            Multiply scancode by 2 — bit 0 will hold press(0) or release(1) flag
                                       0f69 05 27                  ORA        zp_ScratchB                  Merge press/release flag into bit 0 — result is the final wire byte
                                       0f6b 85 26                  STA        zp_ScratchA                  Store final scancode in zp_ScratchA
                                       0f6d 4c b4 0e               JMP        f_SendKeyboardSerial::Send   Tail-call to Send_Key — execution does not return here
                             Key released (index = 0x00). Look up scancode for prior key and transmit release event.
  HandleKeyRelease                      0f70 a9 01                  LDA        #0x1                         A = 1: release flag
                                       0f72 85 27                  STA        zp_ScratchB                  Set direction = release
                                       0f74 a4 15                  LDY        zp_KeyboardIndexPrior        Reload prior key index to look up its scancode for the release event
                                       0f76 a9 00                  LDA        #0x0                         A = 0: clear prior
                                       0f78 85 15                  STA        zp_KeyboardIndexPrior        Clear prior key index (key is now released and acknowledged)
                                       0f7a f0 e9                  BEQ        TransmitScancode             Branch always (A=0 after clear) — transmit release using the prior index saved in Y
                             ****************************************************************************************************************************************************************************
                             * tbl_KeyboardScancodes (0x0F7C)                                                                                                                                           *
                             *                                                                                                                                                                          *
                             * Maps IR keyboard keycode indices (0-127) to Amiga scancodes.                                                                                                             *
                             * Used exclusively by the IR keyboard path — not the wired CD1221.                                                                                                         *
                             * The CD1221 communicates directly with the CIA and does not use this table.                                                                                               *
                             * NOTE: US Amiga keymap. Missing: KP ( ) / * +, European keys 0x30 and 0x2B.                                                                                               *
                             * Space (0x40) is hardcoded at 0x0E3F rather than appearing here.                                                                                                          *
                             ****************************************************************************************************************************************************************************
                             Amiga keyboard scancode table. Indexed by KeyboardIndex (0-127). 
                             Maps CD1221 positions to Amiga raw scancodes. NOTE: appears to be US Amiga 1000 keymap. 
                             Missing: KP ()/*/+, European keys 0x30/0x2B, Space (hardcoded at 0x0E3F).
  tbl_KeyboardScancodes                 0f7c 00                     db         0h                           IR keyboard keycode table — indexed by zp_KeyboardIndex from 40-bit IR frame decode
                                       0f7d 00                     db         0h                           Key: `/~ (0x00)
                                       0f7e 01                     db         1h                           Key: 1/! (0x01)
                                       0f7f 02                     db         2h                           Key: 2/@ (0x02)
                                       0f80 03                     db         3h                           Key: 3/# (0x03)
                                       0f81 04                     db         4h                           Key: 4/$ (0x04)
                                       0f82 05                     db         5h                           Key: 5/% (0x05)
                                       0f83 06                     db         6h                           Key: 6/^ (0x06)
                                       0f84 07                     db         7h                           Key: 7/& (0x07)
                                       0f85 08                     db         8h                           Key: 8/* (0x08)
                                       0f86 09                     db         9h                           Key: 9/( (0x09)
                                       0f87 0a                     db         Ah                           Key: 0/) (0x0A)
                                       0f88 0b                     db         Bh                           Key: -/* (0x0B)
                                       0f89 0c                     db         Ch                           Key: =/+ (0x0C)
                                       0f8a 41                     db         41h                          Key: Backspace (0x41)
                                       0f8b 42                     db         42h                          Key: Tab (0x42)
                                       0f8c 10                     db         10h                          Key: Q (0x10)
                                       0f8d 11                     db         11h                          Key: W (0x11)
                                       0f8e 12                     db         12h                          Key: E (0x12)
                                       0f8f 13                     db         13h                          Key: R (0x13)
                                       0f90 14                     db         14h                          Key: T (0x14)
                                       0f91 15                     db         15h                          Key: Y (0x15)
                                       0f92 16                     db         16h                          Key: U (0x16)
                                       0f93 17                     db         17h                          Key: I (0x17)
                                       0f94 18                     db         18h                          Key: O (0x18)
                                       0f95 19                     db         19h                          Key: P (0x19)
                                       0f96 1a                     db         1Ah                          Key: [/{ (0x1A)
                                       0f97 1b                     db         1Bh                          Key: ]/} (0x1B)
                                       0f98 44                     db         44h                          Key: Return (0x44)
                                       0f99 00                     db         0h
                                       0f9a 20                     db         20h                          Key: A (0x20)
                                       0f9b 21                     db         21h                          Key: S (0x21)
                                       0f9c 22                     db         22h                          Key: D (0x22)
                                       0f9d 23                     db         23h                          Key: F (0x23)
                                       0f9e 24                     db         24h                          Key: G (0x24)
                                       0f9f 25                     db         25h                          Key: H (0x25)
                                       0fa0 26                     db         26h                          Key: J (0x26)
                                       0fa1 27                     db         27h                          Key: K (0x27)
                                       0fa2 28                     db         28h                          Key: L (0x28)
                                       0fa3 29                     db         29h                          Key: semicolon/colon (0x29)
                                       0fa4 2a                     db         2Ah                          Key: quote/doublequote (0x2A)
                                       0fa5 00                     db         0h
                                       0fa6 00                     db         0h
                                       0fa7 00                     db         0h
                                       0fa8 31                     db         31h                          Key: Z (0x31)
                                       0fa9 32                     db         32h                          Key: X (0x32)
                                       0faa 33                     db         33h                          Key: C (0x33)
                                       0fab 34                     db         34h                          Key: V (0x34)
                                       0fac 35                     db         35h                          Key: B (0x35)
                                       0fad 36                     db         36h                          Key: N (0x36)
                                       0fae 37                     db         37h                          Key: M (0x37)
                                       0faf 38                     db         38h                          Key: comma/less (0x38)
                                       0fb0 39                     db         39h                          Key: period/greater (0x39)
                                       0fb1 3a                     db         3Ah                          Key: slash/question (0x3A)
                                       0fb2 00                     db         0h
                                       0fb3 00                     db         0h
                                       0fb4 00                     db         0h
                                       0fb5 3b                     db         3Bh                          Unknown key (0x3B)
                                       0fb6 00                     db         0h
                                       0fb7 50                     db         50h                          Key: F1 (0x50)
                                       0fb8 51                     db         51h                          Key: F2 (0x51)
                                       0fb9 52                     db         52h                          Key: F3 (0x52)
                                       0fba 53                     db         53h                          Key: F4 (0x53)
                                       0fbb 54                     db         54h                          Key: F5 (0x54)
                                       0fbc 55                     db         55h                          Key: F6 (0x55)
                                       0fbd 56                     db         56h                          Key: F7 (0x56)
                                       0fbe 57                     db         57h                          Key: F8 (0x57)
                                       0fbf 58                     db         58h                          Key: F9 (0x58)
                                       0fc0 59                     db         59h                          Key: F10 (0x59)
                                       0fc1 00                     db         0h
                                       0fc2 00                     db         0h
                                       0fc3 00                     db         0h
                                       0fc4 00                     db         0h
                                       0fc5 00                     db         0h
                                       0fc6 00                     db         0h
                                       0fc7 00                     db         0h
                                       0fc8 00                     db         0h
                                       0fc9 00                     db         0h
                                       0fca 00                     db         0h
                                       0fcb 00                     db         0h
                                       0fcc 00                     db         0h
                                       0fcd 00                     db         0h
                                       0fce 00                     db         0h
                                       0fcf 00                     db         0h
                                       0fd0 45                     db         45h                          Key: Escape (0x45)
                                       0fd1 46                     db         46h                          Key: Delete (0x46)
                                       0fd2 5f                     db         5Fh                          Key: Help (0x5F)
                                       0fd3 4c                     db         4Ch                          Key: Up Arrow (0x4C)
                                       0fd4 4f                     db         4Fh                          Key: Left Arrow (0x4F)
                                       0fd5 4e                     db         4Eh                          Key: Right Arrow (0x4E)
                                       0fd6 4d                     db         4Dh                          Key: Down Arrow (0x4D)
                                       0fd7 00                     db         0h
                                       0fd8 00                     db         0h
                                       0fd9 00                     db         0h
                                       0fda 00                     db         0h
                                       0fdb 00                     db         0h
                                       0fdc 00                     db         0h
                                       0fdd 00                     db         0h
                                       0fde 00                     db         0h
                                       0fdf 00                     db         0h
                                       0fe0 00                     db         0h
                                       0fe1 00                     db         0h
                                       0fe2 00                     db         0h
                                       0fe3 00                     db         0h
                                       0fe4 00                     db         0h
                                       0fe5 00                     db         0h
                                       0fe6 0d                     db         Dh                           Key: backslash/pipe (0x0D)
                                       0fe7 00                     db         0h
                                       0fe8 00                     db         0h
                                       0fe9 00                     db         0h
                                       0fea 00                     db         0h
                                       0feb 00                     db         0h
                                       0fec 3d                     db         3Dh                          Numpad 7 (0x3D)
                                       0fed 3e                     db         3Eh                          Numpad 8 (0x3E)
                                       0fee 3f                     db         3Fh                          Numpad 9 (0x3F)
                                       0fef 2d                     db         2Dh                          Numpad 4 (0x2D)
                                       0ff0 2e                     db         2Eh                          Numpad 5 (0x2E)
                                       0ff1 2f                     db         2Fh                          Numpad 6 (0x2F)
                                       0ff2 1d                     db         1Dh                          Numpad 1 (0x1D)
                                       0ff3 1e                     db         1Eh                          Numpad 2 (0x1E)
                                       0ff4 1f                     db         1Fh                          Numpad 3 (0x1F)
                                       0ff5 0f                     db         Fh                           Numpad 0 (0x0F)
                                       0ff6 3c                     db         3Ch                          Numpad period (0x3C)
                                       0ff7 4a                     db         4Ah                          Numpad minus (0x4A)
                                       0ff8 43                     db         43h                          Numpad Enter (0x43)
                             //
                             // ROM
                             // RAM:0ff9-RAM:0fff
                             //
                             Unused ROM byte.
                                       0ff9 ff                     ??         FFh                          Unused ROM byte (0xFF)
  NMIVector                             0ffa da 0b                  dw         BDAh                         NMI vector -> 0x0BDA (RTI only, no NMI sources)
  ResetVector                           0ffc 00 08                  dw         800h                         Reset vector -> 0x0800
  IRQVector                             0ffe 96 0b                  dw         B96h                         IRQ vector -> 0x0B96
